(lp1
ccollections
defaultdict
p2
(c__builtin__
list
p3
tRp4
S'westSouth'
p5
(lp6
I42
aI40
aI41
aI41
aI42
aI41
aI44
aI42
aI41
aI44
aI42
aI40
aI42
aI41
aI42
aI43
aI41
aI42
aI42
aI41
aI41
aI40
aI42
aI41
aI41
aI40
aI41
aI42
aI42
aI42
aI41
aI41
aI41
aI41
aI41
aI42
aI41
aI41
aI41
aI41
aI42
aI40
aI42
aI42
aI41
aI44
aI42
aI40
aI41
aI42
aI41
aI41
aI42
aI41
aI40
aI42
aI41
aI41
aI41
aI219
aI186
aI156
aI83
aI48
aI42
aI247
aI213
aI190
aI173
aI169
aI121
aI86
aI83
aI57
aI41
aI41
aI42
aI248
aI227
aI221
aI179
aI171
aI163
aI159
aI145
aI142
aI139
aI120
aI116
aI85
aI82
aI73
aI70
aI52
aI41
aI41
aI40
aI239
aI227
aI223
aI157
aI129
aI117
aI109
aI41
aI45
aI43
aI261
aI248
aI224
aI196
aI179
aI149
aI114
aI83
aI43
aI41
aI42
aI41
aI41
aI264
aI255
aI236
aI202
aI180
aI177
aI171
aI157
aI148
aI123
aI106
aI92
aI43
aI42
aI239
aI184
aI156
aI128
aI105
aI83
aI41
aI41
aI244
aI208
aI182
aI119
aI116
aI108
aI90
aI77
aI69
aI51
aI254
aI241
aI238
aI236
aI228
aI220
aI174
aI134
aI118
aI99
aI95
aI79
aI76
aI44
aI51
aI41
aI41
aI46
aI272
aI225
aI116
aI104
aI41
aI40
aI248
aI224
aI204
aI184
aI162
aI154
aI126
aI112
aI109
aI96
aI94
aI90
aI41
aI41
aI42
aI40
aI289
aI195
aI170
aI156
aI91
aI87
aI79
aI69
aI41
aI41
aI245
aI236
aI228
aI226
aI215
aI203
aI199
aI175
aI172
aI163
aI88
aI268
aI265
aI203
aI169
aI166
aI134
aI97
aI89
aI41
aI41
aI216
aI213
aI138
aI114
aI111
aI92
aI84
aI42
aI50
aI46
aI41
aI42
aI41
aI256
aI236
aI233
aI225
aI189
aI180
aI160
aI157
aI130
aI98
aI81
aI77
aI68
aI48
aI41
aI238
aI179
aI170
aI150
aI146
aI89
aI80
aI76
aI48
aI266
aI226
aI224
aI92
aI41
aI41
aI41
aI41
aI41
aI247
aI234
aI223
aI215
aI187
aI162
aI153
aI129
aI121
aI70
aI56
aI41
aI42
aI227
aI208
aI173
aI165
aI129
aI91
aI75
aI42
aI41
aI42
aI41
aI42
aI254
aI252
aI191
aI188
aI42
aI42
aI41
aI41
aI237
aI169
aI58
asS'westEast'
p7
(lp8
I41
aI41
aI41
aI42
aI41
aI42
aI42
aI42
aI42
aI42
aI41
aI42
aI42
aI42
aI41
aI41
aI41
aI41
aI42
aI42
aI42
aI43
aI41
aI41
aI42
aI42
aI42
aI42
aI42
aI42
aI41
aI42
aI42
aI42
aI42
aI42
aI43
aI43
aI42
aI41
aI42
aI43
aI42
aI42
aI42
aI42
aI42
aI41
aI41
aI42
aI42
aI42
aI42
aI41
aI42
aI42
aI42
aI41
aI42
aI42
aI41
aI42
aI42
aI42
aI41
aI41
aI42
aI42
aI42
aI42
aI41
aI43
aI42
aI41
aI41
aI42
aI43
aI41
aI41
aI42
aI42
aI42
aI43
aI43
aI43
aI42
aI42
aI46
aI42
aI41
aI42
aI41
aI41
aI42
aI41
aI42
aI42
aI42
aI42
aI42
aI41
aI42
aI42
aI43
aI42
aI43
aI43
aI41
aI42
aI42
aI41
aI41
aI43
aI42
aI41
aI41
aI41
aI41
aI42
aI42
aI42
aI42
aI268
aI274
aI266
aI247
aI244
aI240
aI236
aI229
aI216
aI191
aI180
aI162
aI168
aI151
aI139
aI132
aI129
aI107
aI98
aI79
aI75
aI71
aI52
aI43
aI42
aI41
aI42
aI42
aI250
aI241
aI238
aI228
aI236
aI216
aI206
aI202
aI194
aI200
aI185
aI182
aI177
aI163
aI160
aI156
aI151
aI143
aI149
aI140
aI136
aI114
aI133
aI107
aI104
aI96
aI69
aI90
aI65
aI62
aI53
aI49
aI42
aI42
aI42
aI41
aI42
aI42
aI240
aI207
aI204
aI240
aI202
aI194
aI185
aI202
aI171
aI194
aI162
aI184
aI148
aI144
aI125
aI122
aI118
aI104
aI101
aI98
aI89
aI71
aI98
aI58
aI54
aI90
aI51
aI43
aI43
aI43
aI42
aI42
aI42
aI42
aI250
aI255
aI247
aI243
aI234
aI230
aI216
aI213
aI210
aI206
aI201
aI193
aI199
aI185
aI190
aI182
aI178
aI174
aI169
aI166
aI162
aI151
aI145
aI142
aI121
aI127
aI112
aI104
aI101
aI96
aI92
aI88
aI84
aI79
aI69
aI65
aI59
aI53
aI42
aI41
aI41
aI41
aI42
aI42
aI42
aI41
aI265
aI255
aI252
aI244
aI240
aI236
aI232
aI229
aI220
aI217
aI201
aI193
aI187
aI184
aI176
aI152
aI172
aI121
aI101
aI118
aI98
aI89
aI95
aI78
aI64
aI75
aI43
aI43
aI41
aI42
aI43
aI42
aI41
aI41
aI41
aI41
aI44
aI42
aI41
aI42
aI267
aI272
aI258
aI243
aI229
aI239
aI226
aI223
aI219
aI214
aI210
aI182
aI206
aI162
aI147
aI137
aI134
aI130
aI93
aI85
aI82
aI72
aI59
aI55
aI50
aI47
aI44
aI54
aI42
aI43
aI42
aI41
aI41
aI276
aI272
aI268
aI263
aI255
aI260
aI246
aI251
aI242
aI232
aI229
aI226
aI221
aI207
aI212
aI178
aI164
aI169
aI119
aI161
aI113
aI100
aI91
aI87
aI74
aI42
aI41
aI41
aI42
aI43
aI42
aI48
aI43
aI43
aI41
aI41
aI252
aI241
aI237
aI233
aI229
aI225
aI220
aI212
aI218
aI203
aI200
aI188
aI175
aI185
aI167
aI139
aI130
aI146
aI122
aI138
aI129
aI108
aI100
aI96
aI83
aI79
aI94
aI71
aI63
aI53
aI61
aI45
aI42
aI42
aI41
aI42
aI43
aI42
aI248
aI290
aI245
aI227
aI220
aI212
aI208
aI191
aI168
aI188
aI165
aI147
aI161
aI143
aI127
aI123
aI113
aI108
aI104
aI90
aI86
aI82
aI64
aI56
aI52
aI48
aI42
aI43
aI41
aI42
aI42
aI43
aI42
aI42
aI275
aI280
aI267
aI264
aI259
aI256
aI248
aI238
aI243
aI221
aI212
aI204
aI198
aI180
aI166
aI162
aI133
aI140
aI130
aI125
aI112
aI107
aI98
aI95
aI90
aI80
aI68
aI77
aI50
aI45
aI42
aI44
aI42
aI53
aI42
aI42
aI41
aI46
aI42
aI42
aI42
aI43
aI41
aI42
aI42
aI266
aI262
aI244
aI241
aI236
aI228
aI212
aI208
aI199
aI191
aI197
aI177
aI188
aI174
aI166
aI171
aI158
aI150
aI144
aI140
aI122
aI104
aI79
aI73
aI70
aI67
aI42
aI41
aI43
aI42
aI42
aI42
aI42
aI42
aI42
aI42
aI285
aI281
aI277
aI273
aI260
aI256
aI252
aI248
aI244
aI240
aI216
aI236
aI210
aI204
aI147
aI143
aI139
aI136
aI133
aI103
aI94
aI100
aI81
aI73
aI63
aI60
aI56
aI52
aI42
aI42
aI42
aI42
aI42
aI42
aI41
aI42
aI42
aI250
aI255
aI241
aI233
aI218
aI209
aI206
aI193
aI190
aI182
aI187
aI178
aI163
aI154
aI151
aI146
aI137
aI143
aI122
aI128
aI99
aI120
aI84
aI49
aI43
aI41
aI42
aI42
aI43
aI43
aI42
aI43
aI274
aI244
aI241
aI235
aI227
aI232
aI189
aI184
aI222
aI181
aI174
aI161
aI155
aI150
aI146
aI142
aI138
aI120
aI116
aI110
aI106
aI102
aI94
aI82
aI52
aI77
aI44
aI49
aI43
aI54
aI45
aI41
aI42
aI43
aI41
aI42
aI226
aI251
aI204
aI221
aI201
aI199
aI195
aI191
aI173
aI169
aI145
aI134
aI130
aI125
aI104
aI100
aI97
aI88
aI80
aI72
aI77
aI68
aI62
aI57
aI42
aI42
aI40
aI42
aI41
aI41
aI41
aI41
aI41
aI270
aI276
aI240
aI227
aI219
aI216
aI185
aI176
aI172
aI167
aI163
aI149
aI140
aI123
aI120
aI110
aI116
aI91
aI107
aI87
aI68
aI85
aI60
aI42
aI42
aI41
aI44
aI42
aI41
aI42
aI42
aI42
aI257
aI250
aI242
aI231
aI214
aI204
aI190
aI185
aI174
aI164
aI158
aI154
aI138
aI134
aI131
aI111
aI115
aI97
aI102
aI92
aI82
aI67
aI55
aI52
aI43
aI42
aI42
aI42
aI41
aI42
aI42
aI42
aI42
aI42
aI41
aI275
aI271
aI262
aI259
aI255
aI207
aI231
aI204
aI179
aI170
aI176
aI162
aI167
aI141
aI147
aI135
aI130
aI109
aI122
aI95
aI107
aI86
aI77
aI69
aI84
aI61
aI76
aI67
aI53
aI59
aI42
aI48
aI41
aI41
aI41
aI42
aI42
aI41
aI41
aI42
aI42
aI42
aI42
aI268
aI264
aI252
aI242
aI239
aI230
aI206
aI227
aI203
aI199
aI196
aI191
aI172
aI158
aI139
aI133
aI114
aI106
aI101
aI96
aI91
aI83
aI66
aI52
aI48
aI44
aI42
aI42
aI48
aI43
aI42
aI42
aI41
aI43
aI242
aI249
aI202
aI195
aI189
aI179
aI169
aI160
aI151
aI158
aI124
aI103
aI98
aI85
aI95
aI82
aI78
aI55
aI48
aI42
aI42
aI41
aI41
aI42
aI41
aI42
aI41
aI40
aI42
aI42
aI42
aI42
aI260
aI239
aI211
aI222
aI203
aI209
aI194
aI201
aI180
aI178
aI174
aI170
aI166
aI162
aI157
aI153
aI145
aI105
aI124
aI97
aI93
aI88
aI85
aI80
aI76
aI72
aI63
aI68
aI45
aI52
aI43
aI41
aI42
aI42
aI42
aI41
aI287
aI283
aI279
aI267
aI230
aI241
aI227
aI224
aI213
aI200
aI183
aI179
aI175
aI159
aI148
aI138
aI124
aI129
aI113
aI120
aI109
aI98
aI52
aI84
aI49
asS'eastSouth'
p9
(lp10
I45
aI50
aI47
aI57
aI47
aI48
aI50
aI62
aI76
aI64
aI46
aI48
aI45
aI47
aI45
aI46
aI46
aI63
aI66
aI61
aI64
aI48
aI57
aI54
aI49
aI46
aI46
aI47
aI45
aI47
aI57
aI47
aI46
aI47
aI46
aI60
aI58
aI75
aI83
aI65
aI52
aI52
aI45
aI47
aI53
aI49
aI46
aI47
aI45
aI47
aI45
aI51
aI53
aI44
aI46
aI50
aI160
aI119
aI106
aI65
aI57
aI45
aI42
aI42
aI60
aI114
aI108
aI91
aI83
aI73
aI70
aI58
aI54
aI46
aI41
aI46
aI45
aI142
aI120
aI108
aI105
aI86
aI67
aI42
aI42
aI41
aI48
aI87
aI47
aI46
aI47
aI46
aI45
aI152
aI136
aI120
aI66
aI58
aI42
aI83
aI74
aI67
aI51
aI46
aI47
aI48
aI149
aI141
aI90
aI43
aI41
aI42
aI84
aI70
aI57
aI56
aI65
aI48
aI47
aI46
aI173
aI156
aI152
aI105
aI101
aI59
aI41
aI92
aI105
aI98
aI179
aI133
aI130
aI75
aI42
aI41
aI42
aI69
aI67
aI55
aI74
aI74
aI162
aI148
aI139
aI128
aI97
aI49
aI42
aI42
aI41
aI42
aI86
aI85
aI61
aI48
aI45
aI45
aI199
aI179
aI163
aI100
aI96
aI88
aI57
aI89
aI79
aI47
aI50
aI154
aI130
aI106
aI98
aI51
aI41
aI42
aI91
aI93
aI116
aI122
aI228
aI215
aI143
aI131
aI103
aI97
aI63
aI41
aI186
aI173
aI101
aI89
aI72
aI54
aI60
aI46
aI165
aI162
aI43
aI97
aI87
aI85
aI66
aI63
aI53
aI46
aI169
aI144
aI122
aI86
aI80
aI43
aI85
aI176
aI112
aI79
aI41
aI87
aI46
aI112
aI61
aI58
aI43
aI41
aI84
aI103
aI110
aI103
aI53
aI63
aI174
aI143
aI41
aI71
aI64
aI47
aI185
aI180
aI122
aI110
aI94
aI90
aI87
aI78
aI63
aI56
aI78
aI46
aI47
aI63
aI171
aI152
aI134
aI131
aI126
aI57
aI42
aI42
aI42
aI87
aI73
aI70
aI45
aI46
aI51
aI48
aI165
aI157
aI148
aI137
aI120
aI87
aI41
aI41
aI42
aI46
aI172
aI149
aI73
aI62
aI41
aI42
aI66
aI51
aI141
aI60
aI42
aI41
aI42
aI41
aI68
asS'southEast'
p11
(lp12
I343
aI629
aI931
aI1349
aI1346
aI1339
aI1310
aI1117
aI1114
aI1095
aI1076
aI42
aI41
aI41
aI42
aI41
aI42
aI207
aI204
aI200
aI197
aI184
aI177
aI171
aI165
aI154
aI151
aI144
aI103
aI100
aI77
aI41
aI41
aI211
aI171
aI152
aI100
aI85
aI42
aI42
aI249
aI147
aI135
aI128
aI130
aI85
aI42
aI42
aI304
aI263
aI196
aI72
aI42
aI41
aI203
aI142
aI88
aI65
aI42
aI41
aI247
aI204
aI103
aI66
aI63
aI60
aI57
aI43
aI41
aI41
aI40
aI41
aI252
aI216
aI212
aI198
aI41
aI41
aI271
aI172
aI145
aI141
aI121
aI65
aI58
aI55
aI41
aI42
aI115
aI71
aI41
aI41
aI42
aI203
aI124
aI121
aI117
aI97
aI58
aI49
aI42
aI41
aI41
aI209
aI186
aI153
aI111
aI108
aI104
aI41
aI41
aI252
aI235
aI211
aI41
aI279
aI171
aI116
aI41
aI40
aI41
aI204
aI200
aI150
aI99
aI59
aI41
aI239
aI237
aI139
aI83
aI41
aI42
aI41
aI42
aI215
aI91
aI68
aI42
aI41
aI252
aI118
aI102
aI180
aI82
aI41
aI41
aI41
aI268
aI258
aI204
aI149
aI40
aI41
aI40
aI42
aI41
aI41
aI190
aI174
aI140
aI138
aI132
aI94
aI49
aI41
aI41
aI444
aI433
aI380
asS'eastWest'
p13
(lp14
I41
aI42
aI41
aI42
aI42
aI41
aI40
aI42
aI42
aI42
aI41
aI42
aI42
aI43
aI42
aI42
aI42
aI42
aI43
aI41
aI42
aI41
aI41
aI42
aI43
aI42
aI41
aI42
aI42
aI42
aI42
aI42
aI42
aI42
aI42
aI42
aI41
aI42
aI41
aI42
aI43
aI42
aI42
aI42
aI42
aI42
aI42
aI41
aI42
aI42
aI41
aI42
aI42
aI42
aI41
aI42
aI42
aI41
aI42
aI42
aI42
aI43
aI41
aI43
aI41
aI43
aI42
aI42
aI41
aI42
aI41
aI41
aI42
aI42
aI42
aI43
aI42
aI42
aI42
aI42
aI42
aI41
aI43
aI41
aI41
aI42
aI41
aI42
aI42
aI41
aI42
aI41
aI42
aI41
aI42
aI42
aI43
aI41
aI43
aI42
aI42
aI42
aI42
aI44
aI41
aI42
aI42
aI41
aI42
aI42
aI43
aI42
aI42
aI41
aI41
aI42
aI41
aI42
aI43
aI42
aI41
aI42
aI42
aI41
aI42
aI41
aI42
aI42
aI42
aI41
aI41
aI42
aI43
aI43
aI40
aI42
aI42
aI41
aI41
aI42
aI43
aI42
aI41
aI42
aI42
aI42
aI41
aI42
aI42
aI43
aI43
aI41
aI42
aI42
aI42
aI41
aI42
aI41
aI162
aI169
aI128
aI123
aI115
aI110
aI101
aI82
aI77
aI70
aI62
aI49
aI42
aI42
aI42
aI42
aI42
aI42
aI43
aI42
aI42
aI42
aI41
aI42
aI42
aI42
aI41
aI42
aI42
aI42
aI142
aI137
aI129
aI134
aI119
aI94
aI86
aI77
aI60
aI46
aI42
aI42
aI42
aI42
aI41
aI41
aI42
aI42
aI41
aI41
aI42
aI41
aI42
aI42
aI41
aI41
aI40
aI43
aI42
aI42
aI42
aI42
aI171
aI162
aI167
aI150
aI155
aI146
aI136
aI128
aI133
aI125
aI116
aI111
aI97
aI94
aI90
aI82
aI74
aI49
aI41
aI41
aI42
aI42
aI42
aI42
aI42
aI41
aI42
aI42
aI42
aI41
aI42
aI42
aI42
aI41
aI167
aI159
aI130
aI113
aI110
aI87
aI97
aI75
aI80
aI71
aI63
aI54
aI49
aI45
aI41
aI41
aI41
aI41
aI41
aI42
aI42
aI42
aI42
aI42
aI42
aI41
aI41
aI43
aI41
aI42
aI41
aI42
aI42
aI174
aI180
aI165
aI172
aI157
aI163
aI156
aI147
aI125
aI131
aI114
aI123
aI97
aI112
aI86
aI76
aI44
aI83
aI71
aI42
aI42
aI43
aI41
aI42
aI42
aI42
aI41
aI42
aI41
aI42
aI43
aI42
aI42
aI42
aI42
aI41
aI42
aI42
aI41
aI41
aI41
aI41
aI42
aI42
aI41
aI41
aI160
aI146
aI143
aI127
aI132
aI116
aI121
aI113
aI91
aI83
aI88
aI51
aI66
aI58
aI43
aI42
aI41
aI42
aI41
aI42
aI43
aI41
aI43
aI42
aI42
aI41
aI41
aI42
aI41
aI42
aI42
aI43
aI42
aI42
aI42
aI172
aI162
aI156
aI141
aI137
aI107
aI103
aI101
aI96
aI92
aI89
aI84
aI79
aI70
aI66
aI62
aI58
aI54
aI50
aI45
aI42
aI42
aI42
aI42
aI41
aI42
aI42
aI42
aI42
aI42
aI42
aI42
aI42
aI42
aI41
aI42
aI42
aI41
aI42
aI41
aI42
aI42
aI41
aI170
aI165
aI157
aI154
aI145
aI131
aI136
aI123
aI114
aI120
aI110
aI105
aI102
aI83
aI90
aI55
aI46
aI43
aI42
aI42
aI41
aI42
aI42
aI43
aI42
aI41
aI42
aI42
aI42
aI42
aI42
aI42
aI42
aI41
aI41
aI42
aI41
aI41
aI42
aI203
aI192
aI197
aI182
aI188
aI149
aI108
aI105
aI91
aI69
aI66
aI54
aI48
aI44
aI43
aI42
aI42
aI42
aI43
aI42
aI42
aI42
aI41
aI42
aI42
aI42
aI42
aI42
aI42
aI43
aI42
aI42
aI43
aI42
aI42
aI43
aI173
aI178
aI170
aI165
aI156
aI161
aI133
aI120
aI101
aI92
aI88
aI80
aI45
aI42
aI42
aI41
aI42
aI42
aI41
aI42
aI42
aI41
aI42
aI43
aI42
aI42
aI41
aI42
aI42
aI41
aI41
aI43
aI42
aI186
aI157
aI154
aI136
aI115
aI92
aI88
aI83
aI80
aI76
aI67
aI73
aI59
aI50
aI56
aI46
aI42
aI41
aI41
aI42
aI41
aI42
aI43
aI42
aI41
aI41
aI42
aI41
aI42
aI42
aI42
aI43
aI42
aI43
aI43
aI43
aI42
aI181
aI178
aI170
aI160
aI150
aI158
aI121
aI127
aI115
aI109
aI105
aI92
aI97
aI54
aI46
aI41
aI42
aI42
aI42
aI41
aI41
aI42
aI43
aI41
aI42
aI42
aI41
aI42
aI41
aI41
aI42
aI41
aI41
aI43
aI42
aI41
aI41
aI174
aI168
aI155
aI152
aI116
aI104
aI100
aI96
aI85
aI78
aI49
aI68
aI44
aI42
aI41
aI42
aI42
aI42
aI43
aI41
aI42
aI42
aI42
aI41
aI42
aI42
aI42
aI42
aI42
aI42
aI178
aI186
aI153
aI177
aI161
aI151
aI118
aI98
aI89
aI56
aI52
aI44
aI49
aI41
aI41
aI43
aI43
aI42
aI41
aI42
aI42
aI41
aI41
aI42
aI42
aI41
aI41
aI42
aI42
aI42
aI42
aI42
aI43
aI42
aI41
aI41
aI42
aI43
aI42
aI42
aI42
aI42
aI42
aI180
aI172
aI168
aI145
aI164
aI135
aI131
aI127
aI123
aI118
aI114
aI105
aI103
aI99
aI92
aI88
aI83
aI75
aI70
aI66
aI62
aI58
aI50
aI55
aI47
aI43
aI42
aI42
aI42
aI42
aI42
aI43
aI43
aI42
aI42
aI42
aI42
aI41
aI42
aI42
aI41
aI42
aI42
aI42
aI41
aI42
aI43
aI41
aI42
aI43
aI183
aI179
aI162
aI149
aI127
aI132
aI117
aI103
aI109
aI91
aI101
aI83
aI89
aI80
aI74
aI69
aI43
aI52
aI42
aI42
aI42
aI42
aI42
aI42
aI42
aI42
aI41
aI42
aI43
aI41
aI41
aI41
aI42
aI170
aI159
aI165
aI154
aI149
aI135
aI146
aI132
aI129
aI124
aI116
aI122
aI100
aI91
aI106
aI97
aI83
aI90
aI63
aI81
aI52
aI58
aI48
aI41
aI42
aI41
aI42
aI43
aI42
aI42
aI41
aI42
aI41
aI41
aI41
aI41
aI149
aI135
aI126
aI118
aI113
aI104
aI101
aI76
aI97
aI68
aI64
aI55
aI47
aI44
aI41
aI42
aI42
aI42
aI42
aI43
aI42
aI41
aI41
aI42
aI42
aI42
aI41
aI42
aI42
aI42
aI41
aI41
aI41
aI42
aI166
aI157
aI140
aI120
aI117
aI108
aI114
aI86
aI42
aI42
aI42
aI41
aI42
aI42
aI42
aI42
aI42
aI41
aI42
aI41
aI41
aI42
aI42
aI178
aI173
aI170
aI162
aI153
aI145
aI141
aI124
aI115
aI107
aI112
aI104
aI99
aI95
aI91
aI82
aI74
aI80
aI66
aI72
aI57
aI62
aI48
aI54
aI45
aI42
aI43
aI41
aI41
aI42
aI42
aI42
aI42
aI42
aI42
aI43
aI41
aI41
aI41
aI42
aI42
aI41
aI179
aI169
aI130
aI136
aI120
aI127
aI98
aI119
aI90
aI95
aI81
aI87
aI65
aI80
aI71
aI58
aI54
aI49
aI43
aI42
aI42
aI42
aI41
aI41
aI42
aI41
aI42
aI42
aI42
aI42
aI169
aI166
aI162
aI157
aI149
aI154
aI146
aI101
aI133
aI71
aI64
aI42
aI43
aI42
aI43
aI42
aI41
aI41
asS'southWest'
p15
(lp16
I1227
aI1419
aI1370
aI1343
aI1335
aI1319
aI1275
aI1254
aI1249
aI1227
aI1165
aI1146
aI1081
aI1073
aI1025
aI1018
aI971
aI877
aI572
aI265
aI43
aI41
aI42
aI42
aI41
aI42
aI216
aI213
aI210
aI194
aI191
aI188
aI181
aI174
aI169
aI162
aI159
aI148
aI122
aI41
aI202
aI130
aI225
aI125
aI41
aI41
aI43
aI162
aI145
aI116
aI89
aI73
aI41
aI296
aI177
aI56
aI43
aI43
aI42
aI42
aI42
aI42
aI292
aI183
aI98
aI62
aI42
aI41
aI41
aI41
aI240
aI134
aI122
aI120
aI117
aI76
aI41
aI43
aI250
aI116
aI68
aI41
aI210
aI160
aI69
aI62
aI49
aI42
aI43
aI43
aI42
aI172
aI168
aI152
aI41
aI41
aI211
aI208
aI173
aI82
aI63
aI42
aI230
aI206
aI42
aI41
aI43
aI167
aI157
aI120
aI116
aI54
aI42
aI232
aI201
aI184
aI146
aI142
aI57
aI54
aI42
aI42
aI42
aI275
aI207
aI122
aI42
aI43
aI160
aI113
aI87
aI42
aI249
aI234
aI220
aI191
aI179
aI163
aI150
aI42
aI42
aI195
aI135
aI126
aI98
aI47
aI43
aI43
aI43
aI272
aI184
aI101
aI42
aI43
aI41
aI232
aI229
aI200
aI195
aI64
aI41
aI42
aI206
aI178
aI173
aI166
aI157
aI154
aI82
aI342
aI395
asa(lp17
I0
aI0
aI0
aI0
aI0
aI0
aI0
aI0
aI0
aI0
aI0
aI0
aI0
aI0
aI0
aI0
aI0
aI0
aI0
aI0
aI0
aI0
aI0
aI0
aI0
aI0
aI0
aI0
aI0
aI1
aI1
aI1
aI1
aI1
aI1
aI1
aI1
aI1
aI1
aI1
aI1
aI1
aI1
aI1
aI1
aI1
aI1
aI1
aI1
aI1
aI1
aI2
aI2
aI2
aI2
aI3
aI3
aI3
aI3
aI3
aI3
aI3
aI3
aI3
aI3
aI3
aI4
aI4
aI4
aI4
aI4
aI4
aI4
aI4
aI4
aI4
aI4
aI4
aI4
aI4
aI4
aI4
aI4
aI4
aI4
aI4
aI4
aI4
aI4
aI4
aI4
aI4
aI4
aI4
aI4
aI4
aI4
aI4
aI4
aI4
aI4
aI4
aI4
aI4
aI4
aI4
aI4
aI4
aI4
aI4
aI4
aI4
aI4
aI4
aI5
aI5
aI5
aI5
aI5
aI5
aI5
aI5
aI5
aI5
aI5
aI5
aI5
aI5
aI5
aI5
aI5
aI5
aI5
aI5
aI5
aI5
aI5
aI5
aI5
aI5
aI5
aI5
aI5
aI5
aI5
aI5
aI5
aI5
aI5
aI5
aI5
aI5
aI5
aI5
aI5
aI5
aI5
aI5
aI5
aI5
aI5
aI5
aI5
aI5
aI5
aI6
aI6
aI6
aI6
aI6
aI6
aI6
aI6
aI6
aI6
aI6
aI6
aI6
aI6
aI6
aI6
aI6
aI6
aI6
aI6
aI6
aI6
aI6
aI7
aI7
aI7
aI7
aI8
aI8
aI9
aI8
aI8
aI9
aI9
aI9
aI9
aI9
aI10
aI10
aI10
aI10
aI10
aI11
aI11
aI11
aI11
aI11
aI11
aI11
aI11
aI11
aI11
aI11
aI11
aI11
aI11
aI11
aI11
aI11
aI12
aI12
aI12
aI12
aI12
aI12
aI12
aI12
aI12
aI12
aI12
aI13
aI13
aI13
aI13
aI13
aI13
aI13
aI14
aI13
aI13
aI13
aI13
aI13
aI13
aI13
aI13
aI13
aI13
aI13
aI13
aI13
aI13
aI13
aI13
aI13
aI13
aI13
aI13
aI13
aI13
aI13
aI13
aI13
aI13
aI13
aI14
aI14
aI14
aI14
aI14
aI14
aI14
aI14
aI14
aI14
aI14
aI14
aI14
aI14
aI14
aI14
aI14
aI14
aI15
aI15
aI15
aI15
aI15
aI16
aI16
aI15
aI15
aI15
aI16
aI16
aI16
aI16
aI16
aI16
aI16
aI16
aI16
aI17
aI17
aI17
aI17
aI17
aI17
aI17
aI17
aI17
aI17
aI17
aI17
aI17
aI17
aI18
aI19
aI19
aI19
aI19
aI19
aI18
aI18
aI16
aI15
aI14
aI13
aI12
aI11
aI10
aI10
aI10
aI11
aI11
aI10
aI9
aI9
aI11
aI9
aI9
aI9
aI9
aI10
aI10
aI11
aI12
aI13
aI13
aI14
aI14
aI15
aI15
aI16
aI16
aI16
aI16
aI16
aI16
aI16
aI16
aI16
aI16
aI16
aI16
aI16
aI16
aI16
aI16
aI16
aI16
aI16
aI16
aI16
aI16
aI16
aI16
aI16
aI16
aI16
aI17
aI17
aI17
aI17
aI17
aI17
aI17
aI17
aI17
aI17
aI17
aI17
aI17
aI17
aI17
aI17
aI17
aI17
aI17
aI18
aI18
aI18
aI18
aI18
aI18
aI18
aI18
aI18
aI18
aI18
aI18
aI18
aI18
aI18
aI18
aI18
aI18
aI18
aI18
aI18
aI18
aI18
aI18
aI18
aI19
aI18
aI18
aI18
aI18
aI18
aI19
aI19
aI19
aI19
aI19
aI20
aI20
aI20
aI20
aI20
aI20
aI20
aI20
aI20
aI20
aI20
aI20
aI20
aI20
aI20
aI20
aI20
aI20
aI20
aI20
aI21
aI21
aI21
aI21
aI21
aI21
aI21
aI21
aI21
aI21
aI21
aI21
aI22
aI22
aI22
aI22
aI22
aI23
aI23
aI23
aI23
aI24
aI24
aI24
aI24
aI24
aI24
aI24
aI24
aI24
aI24
aI24
aI24
aI24
aI24
aI24
aI24
aI24
aI24
aI24
aI24
aI24
aI24
aI24
aI24
aI24
aI24
aI24
aI24
aI24
aI24
aI24
aI24
aI24
aI24
aI24
aI24
aI24
aI24
aI24
aI24
aI24
aI24
aI24
aI24
aI24
aI24
aI24
aI24
aI25
aI25
aI25
aI25
aI25
aI25
aI25
aI26
aI26
aI26
aI26
aI26
aI26
aI26
aI26
aI26
aI26
aI26
aI26
aI26
aI26
aI26
aI26
aI26
aI26
aI26
aI26
aI26
aI26
aI26
aI26
aI26
aI26
aI26
aI26
aI26
aI26
aI26
aI26
aI26
aI26
aI26
aI26
aI26
aI26
aI26
aI26
aI26
aI26
aI26
aI26
aI26
aI26
aI27
aI27
aI27
aI27
aI27
aI27
aI27
aI27
aI27
aI27
aI27
aI27
aI27
aI27
aI27
aI27
aI27
aI27
aI27
aI27
aI27
aI27
aI28
aI28
aI28
aI28
aI28
aI28
aI28
aI27
aI27
aI27
aI27
aI27
aI27
aI27
aI27
aI27
aI27
aI27
aI27
aI27
aI27
aI27
aI27
aI27
aI27
aI27
aI28
aI28
aI28
aI28
aI28
aI28
aI28
aI27
aI26
aI25
aI23
aI22
aI20
aI20
aI19
aI20
aI20
aI20
aI19
aI20
aI20
aI20
aI20
aI20
aI20
aI20
aI19
aI19
aI19
aI18
aI18
aI19
aI18
aI17
aI18
aI17
aI18
aI18
aI18
aI19
aI20
aI20
aI21
aI22
aI23
aI25
aI25
aI26
aI26
aI27
aI27
aI27
aI27
aI27
aI27
aI27
aI27
aI27
aI27
aI27
aI27
aI27
aI27
aI27
aI27
aI27
aI27
aI27
aI27
aI28
aI28
aI28
aI28
aI28
aI28
aI27
aI27
aI27
aI27
aI27
aI27
aI27
aI27
aI27
aI27
aI27
aI27
aI27
aI27
aI27
aI27
aI27
aI27
aI27
aI27
aI27
aI27
aI27
aI27
aI27
aI27
aI27
aI27
aI27
aI27
aI27
aI27
aI28
aI28
aI27
aI27
aI27
aI27
aI27
aI27
aI27
aI27
aI27
aI27
aI27
aI27
aI27
aI27
aI27
aI27
aI27
aI27
aI27
aI27
aI27
aI27
aI27
aI27
aI27
aI27
aI27
aI27
aI27
aI27
aI27
aI27
aI27
aI27
aI27
aI27
aI27
aI27
aI27
aI27
aI27
aI27
aI27
aI27
aI27
aI27
aI27
aI27
aI27
aI27
aI27
aI27
aI27
aI27
aI27
aI27
aI27
aI27
aI27
aI27
aI27
aI27
aI27
aI27
aI27
aI27
aI27
aI27
aI27
aI27
aI27
aI27
aI27
aI27
aI27
aI27
aI27
aI27
aI27
aI27
aI27
aI27
aI27
aI27
aI27
aI27
aI27
aI27
aI27
aI27
aI27
aI27
aI27
aI27
aI27
aI27
aI27
aI27
aI27
aI27
aI27
aI27
aI27
aI27
aI27
aI27
aI27
aI27
aI27
aI27
aI27
aI27
aI27
aI27
aI27
aI27
aI27
aI27
aI27
aI27
aI27
aI27
aI27
aI27
aI27
aI27
aI27
aI27
aI27
aI27
aI27
aI27
aI27
aI27
aI27
aI27
aI27
aI27
aI27
aI27
aI27
aI27
aI27
aI27
aI27
aI27
aI27
aI27
aI27
aI27
aI27
aI27
aI27
aI27
aI27
aI27
aI27
aI27
aI27
aI27
aI27
aI27
aI27
aI27
aI27
aI27
aI27
aI27
aI27
aI27
aI27
aI27
aI27
aI27
aI27
aI27
aI27
aI27
aI27
aI27
aI27
aI27
aI27
aI27
aI27
aI27
aI27
aI27
aI28
aI27
aI27
aI27
aI27
aI27
aI27
aI27
aI27
aI27
aI27
aI27
aI27
aI27
aI27
aI27
aI26
aI25
aI24
aI23
aI22
aI21
aI20
aI20
aI20
aI21
aI20
aI20
aI20
aI20
aI19
aI20
aI18
aI19
aI20
aI20
aI19
aI19
aI18
aI18
aI18
aI19
aI18
aI18
aI18
aI18
aI18
aI18
aI18
aI19
aI20
aI20
aI21
aI22
aI24
aI23
aI25
aI25
aI25
aI26
aI26
aI27
aI27
aI27
aI27
aI27
aI27
aI27
aI27
aI27
aI27
aI27
aI27
aI27
aI27
aI27
aI27
aI27
aI27
aI27
aI27
aI27
aI27
aI27
aI27
aI27
aI27
aI28
aI28
aI28
aI28
aI28
aI27
aI27
aI27
aI27
aI27
aI27
aI28
aI27
aI27
aI27
aI27
aI27
aI27
aI27
aI27
aI27
aI27
aI27
aI27
aI27
aI27
aI27
aI27
aI27
aI27
aI27
aI27
aI27
aI27
aI27
aI27
aI27
aI27
aI27
aI27
aI27
aI27
aI27
aI27
aI27
aI27
aI27
aI27
aI27
aI27
aI27
aI27
aI27
aI27
aI27
aI27
aI27
aI27
aI27
aI27
aI27
aI27
aI27
aI27
aI27
aI27
aI27
aI27
aI27
aI27
aI27
aI27
aI27
aI28
aI28
aI28
aI28
aI29
aI28
aI28
aI28
aI28
aI28
aI28
aI28
aI28
aI28
aI28
aI29
aI29
aI29
aI29
aI29
aI28
aI28
aI27
aI27
aI27
aI27
aI27
aI28
aI28
aI28
aI28
aI28
aI29
aI29
aI29
aI29
aI29
aI29
aI29
aI29
aI29
aI29
aI28
aI28
aI27
aI27
aI27
aI27
aI27
aI27
aI27
aI27
aI27
aI27
aI27
aI27
aI27
aI27
aI27
aI27
aI27
aI27
aI27
aI27
aI27
aI27
aI27
aI28
aI27
aI27
aI27
aI27
aI27
aI27
aI27
aI27
aI27
aI27
aI27
aI27
aI27
aI27
aI27
aI27
aI27
aI27
aI27
aI27
aI27
aI27
aI27
aI27
aI27
aI27
aI27
aI27
aI27
aI27
aI27
aI27
aI27
aI27
aI27
aI27
aI27
aI27
aI27
aI27
aI27
aI27
aI27
aI27
aI27
aI27
aI27
aI27
aI27
aI27
aI27
aI27
aI27
aI27
aI27
aI27
aI27
aI27
aI27
aI27
aI27
aI27
aI27
aI27
aI27
aI27
aI27
aI27
aI27
aI27
aI27
aI27
aI27
aI27
aI27
aI27
aI27
aI27
aI27
aI27
aI27
aI27
aI27
aI27
aI27
aI27
aI27
aI27
aI27
aI27
aI27
aI27
aI27
aI27
aI27
aI26
aI25
aI24
aI23
aI22
aI21
aI20
aI20
aI20
aI20
aI20
aI19
aI19
aI19
aI18
aI18
aI18
aI18
aI18
aI17
aI17
aI17
aI17
aI17
aI17
aI18
aI16
aI16
aI16
aI16
aI15
aI17
aI17
aI19
aI19
aI20
aI20
aI21
aI21
aI22
aI23
aI24
aI25
aI25
aI26
aI27
aI27
aI27
aI27
aI27
aI27
aI27
aI27
aI27
aI27
aI27
aI27
aI27
aI27
aI27
aI27
aI27
aI27
aI27
aI27
aI27
aI27
aI27
aI27
aI27
aI27
aI27
aI27
aI27
aI27
aI27
aI27
aI27
aI27
aI27
aI27
aI27
aI27
aI27
aI27
aI27
aI27
aI27
aI27
aI27
aI27
aI27
aI27
aI27
aI27
aI27
aI27
aI27
aI27
aI27
aI27
aI27
aI27
aI27
aI27
aI27
aI27
aI27
aI27
aI27
aI27
aI27
aI27
aI27
aI27
aI27
aI27
aI27
aI27
aI27
aI27
aI27
aI27
aI27
aI27
aI27
aI27
aI27
aI27
aI27
aI27
aI27
aI27
aI27
aI27
aI27
aI27
aI27
aI27
aI27
aI27
aI27
aI27
aI27
aI27
aI27
aI27
aI27
aI27
aI27
aI27
aI27
aI27
aI27
aI27
aI27
aI27
aI27
aI27
aI27
aI27
aI27
aI27
aI27
aI27
aI27
aI27
aI27
aI27
aI27
aI27
aI27
aI27
aI27
aI27
aI27
aI27
aI27
aI27
aI27
aI27
aI27
aI27
aI27
aI27
aI27
aI27
aI27
aI27
aI27
aI27
aI27
aI27
aI27
aI27
aI27
aI27
aI27
aI27
aI27
aI27
aI27
aI27
aI27
aI27
aI27
aI27
aI27
aI27
aI27
aI27
aI27
aI27
aI27
aI27
aI27
aI27
aI27
aI27
aI27
aI27
aI27
aI27
aI27
aI27
aI27
aI27
aI27
aI27
aI27
aI27
aI26
aI25
aI25
aI25
aI25
aI24
aI23
aI23
aI22
aI21
aI20
aI19
aI21
aI20
aI19
aI18
aI18
aI17
aI17
aI16
aI15
aI14
aI13
aI12
aI11
aI10
aI9
aI9
aI8
aI8
aI7
aI6
aI7
aI7
aI7
aI8
aI8
aI8
aI8
aI8
aI9
aI9
aI9
aI9
aI9
aI10
aI10
aI11
aI11
aI11
aI11
aI11
aI11
aI12
aI13
aI13
aI13
aI13
aI13
aI13
aI14
aI15
aI15
aI16
aI16
aI16
aI16
aI16
aI17
aI17
aI18
aI18
aI18
aI19
aI19
aI19
aI19
aI19
aI19
aI20
aI20
aI20
aI20
aI20
aI20
aI20
aI20
aI20
aI20
aI20
aI20
aI21
aI21
aI21
aI21
aI21
aI21
aI21
aI23
aI23
aI23
aI23
aI23
aI23
aI24
aI25
aI25
aI25
aI25
aI25
aI25
aI25
aI25
aI26
aI26
aI26
aI26
aI27
aI28
aI26
aI24
aI23
aI21
aI20
aI19
aI18
aI17
aI16
aI16
aI16
aI17
aI17
aI18
aI19
aI19
aI20
aI20
aI20
aI20
aI20
aI21
aI21
aI21
aI22
aI22
aI22
aI22
aI22
aI22
aI23
aI24
aI24
aI24
aI25
aI25
aI26
aI26
aI26
aI27
aI27
aI27
aI28
aI29
aI29
aI29
aI30
aI30
aI30
aI30
aI30
aI31
aI31
aI31
aI31
aI31
aI32
aI32
aI32
aI34
aI33
aI33
aI33
aI33
aI35
aI35
aI35
aI35
aI35
aI36
aI36
aI36
aI36
aI38
aI38
aI38
aI39
aI39
aI39
aI39
aI39
aI40
aI40
aI40
aI40
aI40
aI41
aI42
aI42
aI43
aI43
aI43
aI43
aI45
aI45
aI45
aI45
aI46
aI47
aI47
aI47
aI48
aI48
aI46
aI45
aI43
aI41
aI39
aI38
aI36
aI34
aI32
aI31
aI30
aI28
aI26
aI24
aI24
aI23
aI23
aI23
aI23
aI23
aI23
aI24
aI24
aI24
aI24
aI24
aI24
aI24
aI24
aI24
aI24
aI24
aI24
aI24
aI24
aI24
aI24
aI24
aI24
aI25
aI25
aI25
aI25
aI25
aI26
aI26
aI26
aI26
aI26
aI26
aI26
aI26
aI26
aI26
aI26
aI26
aI27
aI27
aI27
aI27
aI27
aI26
aI26
aI26
aI27
aI26
aI25
aI24
aI23
aI23
aI22
aI22
aI21
aI21
aI20
aI19
aI18
aI18
aI18
aI17
aI16
aI15
aI15
aI14
aI15
aI15
aI14
aI14
aI13
aI12
aI11
aI12
aI11
aI10
aI10
aI11
aI10
aI9
aI9
aI9
aI10
aI10
aI10
aI10
aI10
aI10
aI11
aI11
aI11
aI11
aI13
aI13
aI13
aI13
aI13
aI14
aI15
aI15
aI15
aI15
aI15
aI16
aI16
aI17
aI17
aI17
aI19
aI18
aI18
aI18
aI18
aI19
aI20
aI19
aI19
aI19
aI20
aI21
aI21
aI21
aI21
aI22
aI23
aI23
aI23
aI24
aI24
aI25
aI25
aI25
aI25
aI25
aI27
aI27
aI27
aI27
aI28
aI29
aI29
aI29
aI30
aI30
aI31
aI31
aI31
aI32
aI33
aI33
aI33
aI33
aI33
aI34
aI32
aI30
aI29
aI28
aI26
aI24
aI24
aI23
aI22
aI22
aI22
aI22
aI23
aI23
aI23
aI23
aI23
aI23
aI23
aI24
aI25
aI25
aI25
aI25
aI25
aI25
aI26
aI26
aI26
aI26
aI26
aI26
aI26
aI27
aI27
aI27
aI27
aI27
aI27
aI27
aI27
aI27
aI27
aI28
aI28
aI28
aI28
aI28
aI28
aI29
aI29
aI29
aI29
aI29
aI29
aI29
aI29
aI29
aI30
aI30
aI30
aI31
aI31
aI31
aI31
aI31
aI31
aI31
aI31
aI32
aI32
aI32
aI32
aI32
aI32
aI32
aI32
aI33
aI33
aI33
aI33
aI34
aI34
aI34
aI34
aI35
aI35
aI36
aI36
aI36
aI36
aI34
aI32
aI30
aI28
aI26
aI25
aI26
aI24
aI22
aI20
aI19
aI18
aI16
aI14
aI14
aI12
aI10
aI9
aI7
aI6
aI5
aI4
aI3
aI2
aI2
aI2
aI2
aI2
aI2
aI2
aI2
aI2
aI2
aI2
aI2
aI2
aI2
aI2
aI2
aI2
aI3
aI3
aI3
aI3
aI3
aI3
aI3
aI3
aI3
aI3
aI3
aI3
aI3
aI4
aI3
aI3
aI3
aI3
aI4
aI4
aI4
aI4
aI4
aI4
aI4
aI4
aI4
aI4
aI4
aI4
aI4
aI4
aI4
aI4
aI4
aI4
aI4
aI4
aI4
aI4
aI4
aI4
aI5
aI5
aI5
aI5
aI5
aI5
aI5
aI5
aI5
aI5
aI5
aI5
aI5
aI5
aI5
aI5
aI5
aI5
aI5
aI5
aI5
aI5
aI5
aI5
aI5
aI5
aI5
aI5
aI5
aI5
aI5
aI5
aI6
aI6
aI6
aI6
aI6
aI6
aI6
aI6
aI6
aI6
aI6
aI6
aI6
aI6
aI6
aI6
aI6
aI7
aI7
aI7
aI7
aI7
aI7
aI7
aI7
aI7
aI7
aI7
aI7
aI7
aI7
aI7
aI7
aI7
aI7
aI7
aI7
aI7
aI6
aI5
aI4
aI3
aI2
aI1
aI1
aI1
aI1
aI2
aI2
aI3
aI3
aI3
aI4
aI4
aI5
aI5
aI6
aI6
aI6
aI6
aI6
aI6
aI6
aI6
aI6
aI6
aI6
aI7
aI7
aI7
aI9
aI9
aI9
aI9
aI9
aI9
aI9
aI10
aI11
aI11
aI11
aI12
aI12
aI12
aI13
aI13
aI14
aI14
aI15
aI15
aI15
aI16
aI16
aI16
aI17
aI17
aI17
aI19
aI19
aI19
aI19
aI20
aI20
aI21
aI22
aI22
aI22
aI22
aI23
aI23
aI24
aI24
aI24
aI25
aI25
aI25
aI26
aI27
aI27
aI27
aI28
aI28
aI28
aI29
aI30
aI30
aI30
aI30
aI30
aI32
aI32
aI32
aI33
aI33
aI33
aI34
aI34
aI35
aI35
aI36
aI36
aI36
aI37
aI37
aI38
aI38
aI38
aI39
aI39
aI40
aI40
aI40
aI40
aI40
aI41
aI41
aI41
aI41
aI43
aI43
aI43
aI44
aI44
aI42
aI41
aI39
aI38
aI36
aI36
aI35
aI33
aI32
aI30
aI28
aI28
aI26
aI25
aI25
aI25
aI26
aI26
aI26
aI26
aI27
aI27
aI27
aI27
aI27
aI28
aI28
aI28
aI28
aI30
aI30
aI30
aI30
aI31
aI31
aI31
aI31
aI31
aI31
aI31
aI32
aI32
aI32
aI32
aI33
aI33
aI33
aI33
aI34
aI34
aI34
aI34
aI34
aI35
aI35
aI35
aI35
aI35
aI36
aI36
aI36
aI36
aI36
aI37
aI37
aI37
aI37
aI38
aI38
aI38
aI38
aI39
aI37
aI35
aI34
aI33
aI30
aI29
aI28
aI27
aI25
aI23
aI21
aI19
aI19
aI17
aI16
aI14
aI13
aI12
aI9
aI8
aI6
aI6
aI5
aI4
aI3
aI2
aI2
aI2
aI3
aI3
aI3
aI3
aI3
aI3
aI3
aI3
aI3
aI3
aI4
aI4
aI4
aI4
aI4
aI4
aI4
aI4
aI4
aI4
aI4
aI4
aI4
aI5
aI5
aI5
aI5
aI5
aI5
aI6
aI6
aI6
aI5
aI5
aI6
aI6
aI6
aI6
aI6
aI6
aI6
aI6
aI6
aI6
aI6
aI6
aI6
aI6
aI6
aI6
aI6
aI6
aI6
aI6
aI6
aI6
aI6
aI6
aI6
aI6
aI6
aI6
aI6
aI6
aI6
aI6
aI6
aI6
aI6
aI6
aI6
aI6
aI6
aI6
aI6
aI6
aI6
aI6
aI6
aI6
aI6
aI6
aI6
aI6
aI6
aI6
aI6
aI6
aI6
aI6
aI6
aI6
aI6
aI6
aI6
aI6
aI6
aI6
aI5
aI4
aI3
aI2
aI1
aI0
aI0
aI1
aI1
aI1
aI2
aI2
aI3
aI3
aI4
aI4
aI4
aI4
aI4
aI6
aI6
aI6
aI6
aI6
aI7
aI7
aI7
aI8
aI8
aI8
aI8
aI9
aI9
aI9
aI10
aI10
aI10
aI10
aI10
aI11
aI11
aI11
aI11
aI12
aI12
aI13
aI13
aI13
aI13
aI13
aI14
aI14
aI14
aI15
aI16
aI16
aI16
aI17
aI17
aI17
aI17
aI17
aI17
aI18
aI19
aI19
aI19
aI20
aI20
aI21
aI21
aI21
aI21
aI22
aI23
aI23
aI24
aI24
aI24
aI24
aI24
aI25
aI25
aI25
aI25
aI25
aI25
aI26
aI27
aI27
aI28
aI28
aI28
aI28
aI28
aI29
aI29
aI29
aI29
aI30
aI31
aI31
aI31
aI31
aI31
aI32
aI33
aI33
aI33
aI33
aI33
aI34
aI34
aI35
aI35
aI36
aI37
aI37
aI37
aI37
aI38
aI39
aI39
aI39
aI37
aI35
aI35
aI33
aI31
aI30
aI29
aI29
aI27
aI27
aI27
aI27
aI27
aI28
aI28
aI28
aI28
aI28
aI28
aI28
aI28
aI28
aI28
aI29
aI29
aI29
aI29
aI29
aI29
aI29
aI30
aI30
aI30
aI30
aI31
aI31
aI31
aI31
aI31
aI32
aI32
aI32
aI32
aI32
aI33
aI33
aI33
aI34
aI34
aI34
aI34
aI34
aI34
aI34
aI35
aI35
aI35
aI35
aI35
aI36
aI36
aI37
aI37
aI37
aI37
aI37
aI37
aI37
aI37
aI38
aI38
aI39
aI39
aI39
aI39
aI39
aI40
aI40
aI40
aI41
aI41
aI41
aI39
aI37
aI35
aI33
aI31
aI29
aI28
aI26
aI24
aI23
aI22
aI20
aI19
aI17
aI15
aI14
aI12
aI11
aI10
aI9
aI8
aI7
aI5
aI4
aI3
aI2
aI2
aI2
aI2
aI2
aI2
aI2
aI2
aI2
aI2
aI4
aI4
aI4
aI4
aI4
aI4
aI4
aI4
aI4
aI5
aI5
aI5
aI5
aI5
aI5
aI5
aI6
aI5
aI5
aI4
aI3
aI3
aI3
aI3
aI3
aI3
aI3
aI3
aI3
aI3
aI3
aI4
aI4
aI4
aI4
aI4
aI4
aI4
aI4
aI4
aI4
aI4
aI4
aI4
aI4
aI4
aI4
aI4
aI4
aI4
aI4
aI4
aI4
aI4
aI4
aI4
aI4
aI4
aI4
aI4
aI4
aI4
aI5
aI5
aI5
aI6
aI6
aI6
aI6
aI6
aI6
aI6
aI6
aI6
aI6
aI6
aI6
aI6
aI7
aI7
aI7
aI7
aI7
aI7
aI7
aI7
aI7
aI7
aI7
aI6
aI5
aI4
aI4
aI5
aI4
aI3
aI2
aI4
aI4
aI4
aI4
aI4
aI5
aI5
aI6
aI6
aI7
aI7
aI7
aI8
aI8
aI9
aI10
aI10
aI10
aI10
aI11
aI12
aI12
aI12
aI12
aI13
aI14
aI14
aI14
aI14
aI14
aI16
aI16
aI16
aI16
aI18
aI18
aI18
aI18
aI18
aI19
aI20
aI20
aI20
aI20
aI21
aI21
aI21
aI21
aI21
aI22
aI22
aI22
aI23
aI24
aI24
aI24
aI24
aI25
aI25
aI25
aI25
aI26
aI26
aI26
aI26
aI26
aI26
aI26
aI26
aI27
aI28
aI28
aI28
aI29
aI30
aI30
aI30
aI30
aI31
aI31
aI32
aI31
aI31
aI31
aI32
aI32
aI32
aI33
aI34
aI34
aI34
aI34
aI34
aI35
aI35
aI36
aI36
aI36
aI36
aI38
aI38
aI38
aI38
aI39
aI39
aI40
aI40
aI40
aI40
aI40
aI41
aI41
aI41
aI41
aI41
aI41
aI41
aI41
aI42
aI42
aI40
aI38
aI36
aI35
aI33
aI32
aI32
aI30
aI29
aI27
aI25
aI24
aI24
aI24
aI24
aI24
aI24
aI24
aI25
aI25
aI25
aI25
aI25
aI25
aI25
aI25
aI25
aI25
aI25
aI25
aI25
aI25
aI25
aI25
aI25
aI26
aI26
aI26
aI26
aI27
aI27
aI27
aI28
aI28
aI28
aI28
aI28
aI28
aI28
aI28
aI28
aI29
aI29
aI29
aI30
aI30
aI30
aI30
aI30
aI30
aI31
aI31
aI32
aI32
aI32
aI32
aI32
aI32
aI32
aI32
aI33
aI33
aI33
aI33
aI34
aI34
aI34
aI34
aI34
aI34
aI35
aI35
aI35
aI35
aI35
aI36
aI34
aI32
aI30
aI28
aI26
aI24
aI22
aI20
aI19
aI17
aI16
aI16
aI14
aI12
aI11
aI9
aI8
aI7
aI5
aI4
aI4
aI4
aI4
aI4
aI4
aI4
aI4
aI5
aI5
aI5
aI5
aI5
aI5
aI6
aI6
aI6
aI6
aI6
aI6
aI6
aI6
aI6
aI6
aI5
aI4
aI4
aI4
aI4
aI4
aI4
aI4
aI4
aI4
aI4
aI4
aI5
aI5
aI5
aI5
aI5
aI5
aI5
aI5
aI5
aI5
aI5
aI5
aI5
aI5
aI5
aI5
aI5
aI5
aI5
aI5
aI5
aI5
aI5
aI5
aI5
aI5
aI5
aI5
aI5
aI5
aI5
aI5
aI5
aI5
aI5
aI5
aI5
aI5
aI5
aI5
aI5
aI5
aI5
aI5
aI5
aI5
aI5
aI5
aI5
aI5
aI5
aI5
aI5
aI5
aI5
aI5
aI5
aI5
aI5
aI5
aI5
aI5
aI5
aI6
aI6
aI6
aI6
aI6
aI6
aI6
aI6
aI6
aI6
aI6
aI6
aI5
aI5
aI5
aI5
aI5
aI5
aI5
aI5
aI5
aI5
aI5
aI5
aI5
aI5
aI5
aI5
aI5
aI5
aI5
aI5
aI5
aI5
aI5
aI5
aI5
aI5
aI5
aI5
aI5
aI5
aI5
aI6
aI6
aI6
aI6
aI6
aI6
aI6
aI6
aI6
aI6
aI6
aI5
aI4
aI3
aI2
aI3
aI3
aI2
aI2
aI3
aI3
aI3
aI3
aI3
aI4
aI4
aI4
aI4
aI5
aI5
aI5
aI5
aI6
aI6
aI8
aI8
aI8
aI8
aI9
aI9
aI9
aI9
aI9
aI9
aI10
aI10
aI10
aI10
aI11
aI12
aI12
aI12
aI13
aI13
aI13
aI13
aI13
aI14
aI14
aI14
aI14
aI16
aI16
aI16
aI16
aI16
aI17
aI17
aI18
aI18
aI18
aI19
aI19
aI20
aI20
aI20
aI20
aI20
aI20
aI22
aI23
aI24
aI24
aI24
aI24
aI24
aI24
aI25
aI25
aI25
aI26
aI26
aI27
aI27
aI28
aI28
aI28
aI29
aI29
aI29
aI29
aI29
aI29
aI29
aI29
aI29
aI29
aI30
aI30
aI30
aI31
aI31
aI31
aI31
aI31
aI33
aI33
aI33
aI34
aI34
aI34
aI34
aI34
aI35
aI35
aI35
aI35
aI35
aI35
aI35
aI36
aI36
aI36
aI35
aI33
aI31
aI29
aI28
aI26
aI25
aI25
aI23
aI21
aI22
aI22
aI23
aI23
aI23
aI23
aI23
aI23
aI23
aI23
aI23
aI24
aI25
aI25
aI25
aI25
aI25
aI25
aI25
aI25
aI26
aI26
aI26
aI26
aI27
aI27
aI27
aI27
aI27
aI28
aI28
aI28
aI28
aI28
aI28
aI28
aI28
aI28
aI28
aI29
aI29
aI29
aI29
aI29
aI29
aI29
aI29
aI29
aI29
aI29
aI29
aI29
aI29
aI29
aI30
aI30
aI30
aI30
aI30
aI30
aI30
aI30
aI30
aI30
aI30
aI30
aI30
aI31
aI31
aI31
aI32
aI32
aI32
aI32
aI32
aI32
aI33
aI33
aI33
aI33
aI34
aI34
aI34
aI34
aI34
aI34
aI34
aI34
aI34
aI32
aI31
aI29
aI27
aI27
aI25
aI23
aI21
aI19
aI19
aI17
aI15
aI13
aI13
aI11
aI11
aI9
aI7
aI5
aI4
aI4
aI4
aI5
aI6
aI6
aI6
aI6
aI6
aI6
aI6
aI6
aI6
aI6
aI6
aI6
aI6
aI6
aI6
aI6
aI6
aI6
aI6
aI6
aI6
aI6
aI6
aI5
aI5
aI4
aI3
aI3
aI3
aI3
aI4
aI5
aI5
aI5
aI5
aI5
aI5
aI5
aI5
aI6
aI5
aI6
aI5
aI4
aI4
aI4
aI4
aI4
aI4
aI4
aI4
aI4
aI4
aI4
aI4
aI4
aI4
aI4
aI4
aI4
aI4
aI4
aI4
aI4
aI4
aI4
aI4
aI4
aI4
aI4
aI4
aI4
aI4
aI4
aI4
aI4
aI4
aI4
aI4
aI4
aI4
aI4
aI4
aI4
aI4
aI4
aI4
aI5
aI5
aI5
aI5
aI5
aI5
aI5
aI5
aI5
aI5
aI6
aI6
aI6
aI6
aI6
aI6
aI6
aI6
aI6
aI6
aI6
aI6
aI6
aI6
aI6
aI6
aI6
aI6
aI6
aI6
aI6
aI6
aI6
aI6
aI6
aI6
aI7
aI7
aI6
aI6
aI5
aI5
aI4
aI3
aI3
aI2
aI2
aI2
aI2
aI3
aI3
aI4
aI4
aI4
aI4
aI5
aI6
aI6
aI6
aI7
aI7
aI7
aI7
aI7
aI7
aI7
aI7
aI8
aI8
aI9
aI10
aI10
aI10
aI10
aI10
aI11
aI11
aI12
aI12
aI12
aI13
aI13
aI13
aI14
aI14
aI14
aI14
aI14
aI14
aI14
aI16
aI16
aI16
aI16
aI17
aI18
aI18
aI18
aI19
aI20
aI20
aI20
aI20
aI20
aI21
aI22
aI22
aI22
aI22
aI22
aI22
aI22
aI22
aI22
aI23
aI23
aI23
aI23
aI23
aI23
aI24
aI24
aI24
aI24
aI25
aI24
aI25
aI25
aI25
aI25
aI26
aI26
aI26
aI26
aI27
aI27
aI27
aI27
aI27
aI27
aI28
aI28
aI28
aI29
aI30
aI30
aI30
aI30
aI30
aI30
aI31
aI32
aI32
aI32
aI33
aI33
aI33
aI33
aI33
aI33
aI34
aI35
aI35
aI36
aI36
aI37
aI37
aI37
aI37
aI39
aI39
aI39
aI40
aI41
aI39
aI37
aI35
aI33
aI32
aI30
aI28
aI27
aI26
aI24
aI22
aI22
aI22
aI22
aI22
aI22
aI22
aI22
aI22
aI22
aI22
aI22
aI22
aI22
aI22
aI22
aI22
aI22
aI22
aI23
aI23
aI23
aI23
aI23
aI23
aI23
aI25
aI25
aI25
aI25
aI25
aI25
aI25
aI25
aI27
aI27
aI27
aI27
aI27
aI27
aI27
aI27
aI27
aI28
aI28
aI28
aI28
aI28
aI29
aI29
aI29
aI29
aI29
aI29
aI29
aI29
aI29
aI29
aI29
aI30
aI30
aI30
aI31
aI31
aI31
aI31
aI31
aI32
aI32
aI32
aI33
aI33
aI33
aI33
aI33
aI34
aI34
aI34
aI32
aI30
aI28
aI26
aI24
aI22
aI20
aI18
aI17
aI15
aI14
aI12
aI10
aI8
aI6
aI4
aI4
aI3
aI3
aI3
aI3
aI3
aI3
aI3
aI3
aI3
aI4
aI4
aI4
aI5
aI5
aI5
aI5
aI5
aI5
aI5
aI5
aI5
aI5
aI4
aI4
aI3
aI3
aI3
aI3
aI3
aI3
aI3
aI3
aI3
aI3
aI3
aI3
aI3
aI3
aI3
aI3
aI3
aI3
aI3
aI3
aI3
aI3
aI3
aI3
aI3
aI4
aI4
aI4
aI4
aI4
aI5
aI4
aI4
aI5
aI5
aI5
aI6
aI7
aI7
aI7
aI7
aI8
aI8
aI8
aI8
aI8
aI9
aI9
aI9
aI9
aI9
aI9
aI8
aI8
aI7
aI7
aI7
aI7
aI8
aI8
aI8
aI8
aI8
aI8
aI8
aI8
aI8
aI8
aI8
aI8
aI8
aI8
aI8
aI8
aI8
aI8
aI8
aI8
aI8
aI8
aI8
aI8
aI8
aI8
aI8
aI8
aI8
aI8
aI9
aI9
aI9
aI9
aI9
aI9
aI9
aI9
aI9
aI9
aI10
aI9
aI8
aI7
aI7
aI6
aI6
aI5
aI5
aI4
aI5
aI4
aI3
aI3
aI3
aI3
aI4
aI4
aI4
aI5
aI5
aI6
aI7
aI7
aI7
aI7
aI8
aI8
aI9
aI9
aI9
aI10
aI11
aI11
aI11
aI11
aI11
aI13
aI13
aI13
aI13
aI13
aI13
aI14
aI15
aI15
aI15
aI17
aI17
aI17
aI18
aI18
aI18
aI19
aI19
aI19
aI20
aI21
aI21
aI21
aI21
aI23
aI23
aI23
aI23
aI23
aI24
aI25
aI25
aI25
aI25
aI26
aI27
aI27
aI27
aI28
aI28
aI28
aI28
aI28
aI28
aI29
aI29
aI30
aI30
aI30
aI31
aI31
aI32
aI32
aI32
aI34
aI34
aI34
aI34
aI34
aI34
aI34
aI35
aI35
aI35
aI36
aI36
aI36
aI37
aI38
aI38
aI38
aI38
aI38
aI38
aI38
aI38
aI38
aI38
aI38
aI38
aI38
aI38
aI38
aI38
aI38
aI38
aI36
aI34
aI32
aI30
aI28
aI26
aI26
aI24
aI23
aI21
aI19
aI20
aI21
aI21
aI21
aI22
aI23
aI23
aI23
aI23
aI23
aI24
aI24
aI24
aI24
aI24
aI25
aI25
aI25
aI25
aI26
aI26
aI26
aI26
aI26
aI27
aI27
aI27
aI27
aI27
aI27
aI28
aI28
aI28
aI28
aI29
aI29
aI29
aI29
aI29
aI31
aI31
aI31
aI31
aI32
aI32
aI33
aI33
aI33
aI33
aI33
aI35
aI34
aI34
aI34
aI35
aI35
aI35
aI36
aI36
aI37
aI37
aI37
aI37
aI38
aI38
aI38
aI38
aI39
aI39
aI39
aI39
aI40
aI40
aI38
aI36
aI34
aI33
aI31
aI31
aI29
aI28
aI26
aI24
aI22
aI20
aI19
aI19
aI17
aI15
aI13
aI12
aI11
aI9
aI8
aI7
aI7
aI6
aI6
aI6
aI6
aI6
aI6
aI6
aI6
aI6
aI6
aI6
aI6
aI6
aI6
aI7
aI6
aI7
aI7
aI7
aI7
aI7
aI7
aI7
aI7
aI7
aI7
aI7
aI6
aI6
aI5
aI5
aI5
aI5
aI5
aI5
aI6
aI6
aI6
aI6
aI6
aI6
aI7
aI7
aI7
aI7
aI7
aI6
aI6
aI6
aI6
aI6
aI6
aI6
aI6
aI6
aI6
aI6
aI6
aI6
aI6
aI6
aI6
aI6
aI6
aI6
aI6
aI6
aI6
aI6
aI6
aI6
aI6
aI6
aI6
aI6
aI6
aI6
aI6
aI6
aI6
aI6
aI6
aI6
aI6
aI6
aI6
aI6
aI6
aI6
aI6
aI6
aI6
aI6
aI6
aI6
aI6
aI6
aI7
aI7
aI7
aI7
aI7
aI6
aI5
aI4
aI3
aI2
aI1
aI1
aI1
aI1
aI1
aI1
aI1
aI2
aI3
aI3
aI4
aI4
aI4
aI4
aI4
aI4
aI4
aI4
aI5
aI5
aI5
aI5
aI6
aI6
aI6
aI6
aI6
aI6
aI7
aI7
aI8
aI8
aI8
aI8
aI8
aI8
aI8
aI8
aI8
aI8
aI8
aI8
aI9
aI9
aI9
aI9
aI9
aI9
aI10
aI11
aI11
aI11
aI11
aI11
aI12
aI12
aI12
aI13
aI13
aI13
aI13
aI14
aI14
aI15
aI15
aI15
aI16
aI16
aI16
aI16
aI16
aI16
aI17
aI17
aI17
aI17
aI18
aI18
aI18
aI18
aI18
aI18
aI19
aI19
aI19
aI19
aI20
aI20
aI21
aI20
aI20
aI20
aI21
aI21
aI21
aI21
aI21
aI22
aI22
aI22
aI22
aI22
aI22
aI22
aI23
aI23
aI23
aI23
aI24
aI24
aI24
aI24
aI24
aI24
aI25
aI26
aI26
aI26
aI27
aI28
aI28
aI28
aI28
aI29
aI29
aI29
aI29
aI29
aI30
aI30
aI30
aI30
aI31
aI31
aI31
aI31
aI31
aI31
aI32
aI32
aI32
aI32
aI32
aI32
aI33
aI33
aI34
aI35
aI35
aI35
aI36
aI34
aI32
aI30
aI28
aI26
aI26
aI24
aI23
aI21
aI20
aI20
aI20
aI21
aI21
aI21
aI22
aI22
aI22
aI22
aI22
aI22
aI22
aI22
aI22
aI22
aI22
aI22
aI23
aI23
aI23
aI23
aI23
aI24
aI24
aI24
aI24
aI24
aI25
aI25
aI25
aI25
aI25
aI25
aI26
aI26
aI26
aI26
aI26
aI26
aI27
aI27
aI27
aI27
aI27
aI28
aI28
aI28
aI28
aI28
aI28
aI29
aI29
aI29
aI29
aI29
aI30
aI30
aI30
aI30
aI32
aI32
aI32
aI32
aI32
aI34
aI33
aI33
aI33
aI33
aI34
aI34
aI34
aI34
aI35
aI35
aI35
aI36
aI36
aI36
aI36
aI36
aI35
aI33
aI31
aI29
aI27
aI25
aI24
aI23
aI21
aI20
aI18
aI16
aI16
aI14
aI12
aI11
aI10
aI8
aI8
aI6
aI5
aI4
aI4
aI4
aI4
aI4
aI4
aI4
aI4
aI4
aI4
aI5
aI5
aI5
aI5
aI6
aI6
aI6
aI6
aI6
aI6
aI6
aI6
aI6
aI6
aI6
aI6
aI6
aI6
aI7
aI6
aI6
aI5
aI6
aI6
aI6
aI6
aI7
aI6
aI6
aI6
aI6
aI6
aI6
aI6
aI6
aI6
aI6
aI6
aI6
aI6
aI6
aI6
aI6
aI6
aI7
aI7
aI7
aI7
aI7
aI7
aI7
aI7
aI7
aI7
aI7
aI7
aI7
aI7
aI7
aI7
aI7
aI7
aI7
aI7
aI7
aI7
aI7
aI7
aI7
aI7
aI7
aI7
aI7
aI7
aI7
aI7
aI7
aI7
aI7
aI7
aI7
aI7
aI7
aI7
aI7
aI7
aI7
aI7
aI7
aI7
aI7
aI7
aI7
aI7
aI8
aI7
aI7
aI7
aI8
aI8
aI8
aI7
aI7
aI6
aI5
aI5
aI5
aI4
aI4
aI3
aI2
aI2
aI3
aI3
aI3
aI4
aI4
aI4
aI5
aI5
aI5
aI6
aI6
aI6
aI7
aI7
aI8
aI9
aI9
aI9
aI9
aI11
aI11
aI11
aI11
aI13
aI13
aI13
aI13
aI14
aI14
aI14
aI14
aI15
aI15
aI15
aI15
aI15
aI15
aI15
aI15
aI16
aI16
aI16
aI16
aI16
aI17
aI17
aI17
aI18
aI18
aI18
aI18
aI19
aI19
aI19
aI19
aI19
aI19
aI19
aI20
aI20
aI20
aI21
aI22
aI22
aI22
aI22
aI22
aI22
aI22
aI22
aI22
aI22
aI23
aI23
aI23
aI23
aI23
aI24
aI24
aI24
aI25
aI26
aI26
aI26
aI26
aI26
aI27
aI28
aI28
aI28
aI28
aI29
aI29
aI29
aI29
aI29
aI30
aI30
aI30
aI30
aI30
aI30
aI30
aI30
aI30
aI30
aI31
aI32
aI32
aI32
aI32
aI32
aI32
aI32
aI32
aI32
aI32
aI32
aI32
aI32
aI33
aI31
aI29
aI27
aI25
aI24
aI23
aI22
aI20
aI18
aI18
aI18
aI18
aI18
aI18
aI18
aI18
aI18
aI18
aI18
aI18
aI18
aI18
aI18
aI18
aI18
aI18
aI18
aI19
aI19
aI19
aI19
aI19
aI19
aI20
aI20
aI20
aI20
aI20
aI21
aI21
aI21
aI21
aI21
aI21
aI22
aI22
aI22
aI22
aI22
aI22
aI22
aI23
aI23
aI23
aI23
aI23
aI23
aI24
aI24
aI24
aI24
aI24
aI25
aI25
aI25
aI25
aI25
aI26
aI26
aI26
aI26
aI26
aI27
aI27
aI27
aI27
aI27
aI27
aI28
aI28
aI28
aI29
aI29
aI29
aI29
aI29
aI29
aI29
aI29
aI29
aI29
aI29
aI30
aI30
aI30
aI30
aI30
aI31
aI31
aI31
aI29
aI27
aI25
aI23
aI21
aI20
aI19
aI19
aI17
aI16
aI14
aI13
aI11
aI10
aI8
aI6
aI4
aI3
aI3
aI3
aI3
aI3
aI3
aI3
aI3
aI3
aI3
aI4
aI4
aI4
aI5
aI5
aI5
aI6
aI6
aI6
aI6
aI6
aI6
aI6
aI6
aI6
aI6
aI6
aI5
aI5
aI4
aI3
aI3
aI3
aI3
aI3
aI4
aI5
aI5
aI6
aI6
aI6
aI6
aI6
aI6
aI6
aI6
aI6
aI6
aI6
aI7
aI7
aI7
aI6
aI5
aI4
aI4
aI4
aI4
aI4
aI5
aI6
aI6
aI6
aI6
aI6
aI6
aI6
aI6
aI7
aI7
aI7
aI7
aI7
aI7
aI7
aI7
aI7
aI7
aI7
aI7
aI7
aI6
aI5
aI4
aI4
aI4
aI4
aI4
aI5
aI6
aI6
aI7
aI7
aI7
aI8
aI8
aI8
aI8
aI8
aI8
aI8
aI8
aI8
aI8
aI8
aI7
aI5
aI4
aI3
aI2
aI2
aI2
aI3
aI4
aI4
aI4
aI4
aI4
aI5
aI5
aI5
aI5
aI5
aI5
aI5
aI5
aI5
aI5
aI5
aI5
aI5
aI5
aI5
aI6
aI6
aI6
aI7
aI7
aI7
aI7
aI7
aI8
aI9
aI9
aI9
aI10
aI11
aI11
aI11
aI11
aI11
aI11
aI11
aI11
aI12
aI12
aI12
aI13
aI13
aI13
aI14
aI14
aI14
aI14
aI14
aI14
aI15
aI15
aI15
aI15
aI17
aI17
aI17
aI17
aI17
aI17
aI17
aI17
aI18
aI18
aI19
aI19
aI19
aI19
aI19
aI19
aI20
aI21
aI21
aI21
aI21
aI21
aI22
aI22
aI22
aI22
aI23
aI23
aI24
aI24
aI24
aI25
aI25
aI25
aI25
aI26
aI27
aI27
aI27
aI27
aI28
aI29
aI29
aI29
aI29
aI29
aI29
aI31
aI31
aI32
aI32
aI33
aI33
aI33
aI33
aI33
aI35
aI35
aI35
aI36
aI36
aI37
aI37
aI37
aI39
aI39
aI39
aI39
aI40
aI40
aI40
aI41
aI39
aI38
aI37
aI35
aI33
aI31
aI30
aI30
aI29
aI27
aI25
aI25
aI26
aI26
aI26
aI26
aI26
aI26
aI26
aI26
aI26
aI26
aI26
aI26
aI26
aI26
aI27
aI27
aI27
aI27
aI27
aI27
aI28
aI28
aI28
aI28
aI28
aI28
aI28
aI28
aI28
aI29
aI29
aI29
aI29
aI30
aI30
aI30
aI31
aI31
aI32
aI32
aI32
aI33
aI33
aI33
aI34
aI34
aI34
aI35
aI35
aI35
aI36
aI36
aI36
aI37
aI37
aI37
aI37
aI37
aI37
aI37
aI37
aI37
aI37
aI37
aI37
aI37
aI38
aI38
aI38
aI38
aI37
aI35
aI33
aI31
aI29
aI27
aI28
aI27
aI25
aI23
aI21
aI20
aI19
aI17
aI16
aI14
aI12
aI11
aI9
aI7
aI5
aI4
aI4
aI4
aI4
aI4
aI4
aI4
aI4
aI4
aI4
aI4
aI4
aI4
aI4
aI4
aI4
aI4
aI4
aI4
aI4
aI4
aI4
aI4
aI4
aI4
aI4
aI4
aI4
aI4
aI4
aI4
aI4
aI4
aI4
aI4
aI4
aI4
aI5
aI5
aI5
aI5
aI5
aI5
aI6
aI6
aI6
aI7
aI7
aI7
aI7
aI7
aI7
aI7
aI7
aI7
aI7
aI7
aI7
aI7
aI7
aI7
aI7
aI7
aI7
aI7
aI7
aI7
aI7
aI7
aI8
aI8
aI8
aI8
aI8
aI8
aI8
aI8
aI8
aI8
aI8
aI8
aI8
aI8
aI8
aI9
aI9
aI9
aI9
aI9
aI9
aI9
aI9
aI9
aI9
aI9
aI9
aI9
aI9
aI9
aI9
aI9
aI8
aI7
aI6
aI6
aI6
aI5
aI5
aI4
aI4
aI5
aI4
aI5
aI4
aI4
aI5
aI5
aI6
aI6
aI7
aI7
aI7
aI7
aI8
aI9
aI9
aI9
aI10
aI10
aI10
aI10
aI10
aI10
aI10
aI10
aI10
aI11
aI11
aI12
aI12
aI12
aI12
aI13
aI13
aI13
aI14
aI14
aI15
aI15
aI15
aI16
aI16
aI16
aI16
aI16
aI17
aI17
aI17
aI17
aI17
aI18
aI18
aI18
aI19
aI19
aI19
aI19
aI19
aI19
aI19
aI19
aI21
aI21
aI21
aI21
aI21
aI22
aI22
aI22
aI22
aI22
aI22
aI22
aI22
aI23
aI23
aI23
aI23
aI24
aI24
aI24
aI25
aI25
aI25
aI25
aI27
aI27
aI27
aI27
aI28
aI28
aI28
aI29
aI30
aI30
aI30
aI30
aI30
aI30
aI31
aI32
aI32
aI32
aI32
aI33
aI33
aI33
aI33
aI33
aI33
aI33
aI33
aI33
aI33
aI33
aI33
aI33
aI33
aI33
aI33
aI33
aI33
aI34
aI34
aI34
aI34
aI34
aI32
aI31
aI29
aI27
aI25
aI24
aI22
aI20
aI19
aI18
aI17
aI17
aI17
aI17
aI17
aI17
aI18
aI18
aI18
aI18
aI18
aI18
aI18
aI19
aI19
aI19
aI19
aI20
aI20
aI20
aI20
aI20
aI20
aI21
aI21
aI21
aI21
aI21
aI22
aI22
aI22
aI23
aI23
aI23
aI23
aI23
aI23
aI23
aI23
aI23
aI23
aI24
aI24
aI24
aI24
aI24
aI24
aI24
aI24
aI24
aI24
aI24
aI24
aI24
aI24
aI24
aI24
aI24
aI24
aI24
aI24
aI24
aI25
aI25
aI26
aI27
aI27
aI28
aI28
aI28
aI28
aI29
aI29
aI29
aI30
aI30
aI30
aI30
aI30
aI31
aI31
aI31
aI31
aI31
aI32
aI32
aI32
aI32
aI33
aI34
aI34
aI34
aI34
aI34
aI34
aI33
aI31
aI29
aI27
aI25
aI24
aI22
aI20
aI19
aI18
aI16
aI15
aI14
aI12
aI10
aI9
aI8
aI7
aI5
aI4
aI4
aI4
aI4
aI4
aI4
aI4
aI4
aI4
aI5
aI5
aI5
aI5
aI5
aI5
aI5
aI5
aI5
aI5
aI5
aI6
aI6
aI6
aI6
aI6
aI5
aI5
aI5
aI5
aI5
aI5
aI5
aI5
aI5
aI5
aI5
aI5
aI5
aI5
aI5
aI5
aI5
aI5
aI5
aI5
aI5
aI5
aI5
aI5
aI5
aI5
aI5
aI6
aI6
aI6
aI6
aI6
aI6
aI7
aI7
aI7
aI7
aI7
aI8
aI8
aI8
aI8
aI8
aI8
aI8
aI8
aI8
aI8
aI8
aI8
aI8
aI8
aI8
aI8
aI8
aI8
aI8
aI8
aI8
aI8
aI8
aI8
aI8
aI8
aI8
aI8
aI8
aI8
aI8
aI8
aI8
aI8
aI8
aI8
aI8
aI8
aI8
aI7
aI6
aI5
aI5
aI5
aI5
aI4
aI3
aI2
aI3
aI3
aI4
aI4
aI5
aI5
aI5
aI5
aI6
aI7
aI7
aI7
aI7
aI7
aI8
aI9
aI10
aI10
aI10
aI11
aI11
aI11
aI12
aI12
aI12
aI12
aI13
aI13
aI13
aI13
aI13
aI13
aI14
aI14
aI14
aI14
aI14
aI15
aI15
aI15
aI15
aI15
aI16
aI16
aI16
aI16
aI16
aI16
aI17
aI17
aI17
aI17
aI18
aI18
aI18
aI18
aI20
aI20
aI20
aI20
aI20
aI21
aI21
aI21
aI21
aI21
aI22
aI22
aI23
aI23
aI24
aI24
aI25
aI25
aI25
aI26
aI26
aI26
aI27
aI28
aI28
aI28
aI28
aI28
aI29
aI29
aI29
aI29
aI29
aI31
aI31
aI31
aI31
aI33
aI32
aI32
aI32
aI33
aI33
aI34
aI34
aI34
aI34
aI35
aI35
aI35
aI35
aI35
aI36
aI36
aI36
aI37
aI37
aI35
aI33
aI31
aI30
aI28
aI26
aI25
aI25
aI25
aI26
aI26
aI28
aI28
aI28
aI28
aI28
aI29
aI29
aI29
aI29
aI29
aI29
aI29
aI29
aI29
aI29
aI29
aI29
aI30
aI30
aI30
aI31
aI31
aI31
aI31
aI32
aI32
aI33
aI33
aI33
aI33
aI33
aI33
aI33
aI33
aI33
aI33
aI33
aI33
aI33
aI33
aI33
aI33
aI33
aI33
aI34
aI34
aI34
aI35
aI35
aI35
aI35
aI35
aI35
aI35
aI35
aI35
aI35
aI35
aI36
aI36
aI36
aI36
aI36
aI37
aI37
aI37
aI37
aI37
aI37
aI37
aI37
aI37
aI35
aI33
aI31
aI29
aI28
aI26
aI24
aI23
aI22
aI20
aI18
aI16
aI14
aI13
aI11
aI9
aI7
aI6
aI7
aI7
aI7
aI7
aI7
aI7
aI7
aI7
aI7
aI7
aI7
aI7
aI8
aI8
aI8
aI8
aI8
aI8
aI9
aI9
aI9
aI9
aI9
aI9
aI9
aI9
aI9
aI9
aI9
aI8
aI7
aI6
aI5
aI5
aI5
aI5
aI5
aI5
aI5
aI5
aI5
aI5
aI5
aI5
aI5
aI5
aI5
aI5
aI5
aI5
aI5
aI6
aI6
aI6
aI6
aI7
aI7
aI7
aI7
aI7
aI7
aI7
aI8
aI7
aI7
aI7
aI7
aI7
aI7
aI7
aI7
aI7
aI7
aI7
aI7
aI7
aI7
aI7
aI7
aI7
aI7
aI7
aI7
aI7
aI8
aI7
aI7
aI7
aI7
aI7
aI7
aI7
aI7
aI7
aI7
aI7
aI7
aI7
aI7
aI7
aI7
aI7
aI7
aI7
aI7
aI7
aI7
aI7
aI6
aI5
aI4
aI3
aI4
aI3
aI3
aI2
aI2
aI2
aI2
aI4
aI4
aI4
aI5
aI5
aI6
aI6
aI6
aI6
aI6
aI7
aI7
aI7
aI7
aI7
aI7
aI7
aI7
aI7
aI7
aI7
aI7
aI7
aI8
aI9
aI9
aI9
aI9
aI9
aI10
aI11
aI11
aI11
aI12
aI12
aI12
aI13
aI13
aI14
aI15
aI15
aI15
aI15
aI15
aI15
aI16
aI16
aI16
aI16
aI16
aI16
aI16
aI17
aI17
aI17
aI17
aI17
aI17
aI17
aI17
aI17
aI17
aI18
aI18
aI18
aI18
aI18
aI19
aI19
aI19
aI20
aI20
aI20
aI20
aI20
aI20
aI20
aI20
aI20
aI20
aI20
aI20
aI20
aI21
aI21
aI21
aI21
aI22
aI22
aI23
aI23
aI23
aI23
aI23
aI24
aI24
aI24
aI24
aI25
aI25
aI25
aI25
aI27
aI27
aI27
aI28
aI28
aI28
aI29
aI30
aI30
aI30
aI30
aI30
aI30
aI30
aI31
aI31
aI31
aI31
aI31
aI31
aI31
aI31
aI29
aI28
aI26
aI24
aI22
aI21
aI20
aI19
aI19
aI20
aI21
aI21
aI21
aI21
aI22
aI22
aI22
aI22
aI22
aI22
aI23
aI23
aI24
aI24
aI24
aI24
aI24
aI25
aI24
aI24
aI24
aI24
aI24
aI24
aI24
aI24
aI24
aI24
aI24
aI25
aI25
aI26
aI26
aI26
aI26
aI26
aI26
aI26
aI26
aI26
aI27
aI27
aI27
aI28
aI28
aI28
aI28
aI28
aI29
aI29
aI30
aI30
aI30
aI30
aI31
aI31
aI31
aI31
aI31
aI32
aI32
aI32
aI33
aI33
aI33
aI33
aI33
aI33
aI33
aI33
aI33
aI33
aI34
aI34
aI34
aI35
aI35
aI35
aI33
aI31
aI29
aI28
aI26
aI24
aI24
aI22
aI20
aI18
aI17
aI14
aI13
aI11
aI9
aI8
aI7
aI6
aI4
aI4
aI4
aI4
aI5
aI5
aI5
aI5
aI5
aI5
aI5
aI5
aI5
aI5
aI5
aI5
aI5
aI5
aI6
aI7
aI6
aI6
aI6
aI6
aI6
aI6
aI6
aI6
aI6
aI6
aI6
aI5
aI5
aI5
aI5
aI5
aI5
aI5
aI5
aI5
aI5
aI5
aI5
aI5
aI5
aI6
aI6
aI6
aI6
aI6
aI7
aI7
aI7
aI7
aI7
aI7
aI7
aI7
aI7
aI7
aI7
aI7
aI7
aI7
aI7
aI7
aI7
aI7
aI7
aI7
aI7
aI7
aI7
aI7
aI7
aI8
aI8
aI8
aI8
aI8
aI8
aI8
aI8
aI8
aI8
aI8
aI8
aI8
aI8
aI8
aI8
aI8
aI8
aI8
aI8
aI8
aI8
aI8
aI8
aI8
aI8
aI8
aI8
aI8
aI8
aI8
aI8
aI8
aI8
aI8
aI8
aI8
aI8
aI8
aI8
aI8
aI8
aI8
aI8
aI8
aI8
aI8
aI8
aI8
aI8
aI8
aI8
aI8
aI8
aI7
aI6
aI6
aI5
aI4
aI3
aI2
aI2
aI2
aI2
aI2
aI2
aI3
aI3
aI3
aI3
aI3
aI3
aI3
aI4
aI4
aI6
aI6
aI6
aI6
aI6
aI6
aI6
aI6
aI6
aI6
aI6
aI6
aI6
aI6
aI6
aI6
aI6
aI6
aI6
aI6
aI6
aI7
aI7
aI7
aI7
aI7
aI8
aI8
aI8
aI8
aI9
aI9
aI9
aI10
aI10
aI10
aI11
aI11
aI12
aI12
aI12
aI13
aI13
aI14
aI14
aI15
aI15
aI16
aI16
aI16
aI16
aI17
aI18
aI18
aI18
aI19
aI19
aI19
aI20
aI21
aI21
aI22
aI22
aI22
aI23
aI23
aI23
aI24
aI24
aI25
aI25
aI25
aI25
aI25
aI25
aI26
aI26
aI26
aI26
aI26
aI27
aI27
aI27
aI27
aI27
aI28
aI28
aI28
aI29
aI29
aI29
aI30
aI31
aI31
aI31
aI32
aI32
aI32
aI32
aI32
aI33
aI33
aI33
aI33
aI33
aI34
aI34
aI32
aI30
aI28
aI27
aI26
aI25
aI23
aI21
aI21
aI20
aI18
aI17
aI16
aI14
aI14
aI15
aI15
aI15
aI15
aI16
aI16
aI16
aI16
aI16
aI17
aI17
aI17
aI17
aI17
aI18
aI18
aI18
aI18
aI18
aI18
aI18
aI18
aI18
aI19
aI18
aI18
aI19
aI19
aI19
aI20
aI20
aI20
aI20
aI20
aI20
aI20
aI21
aI21
aI21
aI21
aI22
aI22
aI22
aI22
aI22
aI22
aI23
aI23
aI23
aI23
aI23
aI24
aI24
aI24
aI24
aI25
aI25
aI25
aI25
aI26
aI26
aI26
aI26
aI26
aI28
aI28
aI28
aI28
aI30
aI30
aI30
aI30
aI30
aI31
aI30
aI28
aI26
aI24
aI23
aI23
aI21
aI19
aI17
aI15
aI13
aI13
aI11
aI10
aI8
aI6
aI6
aI5
aI5
aI5
aI5
aI5
aI5
aI5
aI5
aI5
aI5
aI5
aI5
aI5
aI5
aI5
aI5
aI5
aI5
aI5
aI5
aI5
aI5
aI5
aI5
aI5
aI5
aI5
aI5
aI5
aI5
aI5
aI5
aI5
aI5
aI5
aI5
aI5
aI5
aI5
aI5
aI5
aI5
aI5
aI5
aI5
aI5
aI5
aI5
aI5
aI5
aI5
aI5
aI5
aI5
aI5
aI5
aI5
aI5
aI5
aI5
aI5
aI5
aI6
aI6
aI6
aI6
aI6
aI6
aI6
aI6
aI6
aI6
aI6
aI6
aI6
aI6
aI6
aI6
aI6
aI6
aI6
aI6
aI6
aI6
aI6
aI7
aI7
aI7
aI7
aI7
aI7
aI7
aI7
aI7
aI7
aI7
aI7
aI7
aI7
aI7
aI7
aI7
aI7
aI7
aI7
aI7
aI7
aI7
aI7
aI7
aI7
aI7
aI7
aI7
aI7
aI7
aI7
aI7
aI7
aI7
aI7
aI7
aI6
aI5
aI5
aI4
aI3
aI3
aI2
aI2
aI1
aI2
aI3
aI3
aI4
aI4
aI4
aI4
aI4
aI4
aI4
aI4
aI4
aI4
aI4
aI5
aI5
aI5
aI5
aI5
aI5
aI5
aI6
aI6
aI6
aI6
aI6
aI6
aI6
aI6
aI6
aI6
aI6
aI6
aI7
aI7
aI9
aI9
aI9
aI9
aI10
aI10
aI10
aI10
aI10
aI10
aI10
aI11
aI11
aI12
aI12
aI12
aI12
aI12
aI13
aI13
aI14
aI14
aI14
aI14
aI15
aI15
aI16
aI16
aI16
aI16
aI16
aI16
aI16
aI16
aI17
aI17
aI17
aI17
aI17
aI18
aI18
aI18
aI18
aI18
aI19
aI19
aI19
aI19
aI19
aI19
aI20
aI20
aI21
aI22
aI22
aI22
aI22
aI22
aI23
aI23
aI23
aI24
aI25
aI25
aI25
aI25
aI25
aI25
aI26
aI26
aI28
aI28
aI28
aI29
aI29
aI29
aI30
aI30
aI31
aI31
aI31
aI32
aI32
aI32
aI33
aI34
aI34
aI34
aI35
aI35
aI36
aI36
aI36
aI34
aI32
aI30
aI28
aI28
aI26
aI25
aI24
aI23
aI21
aI20
aI20
aI20
aI21
aI22
aI21
aI21
aI21
aI21
aI22
aI22
aI22
aI22
aI22
aI23
aI23
aI23
aI24
aI24
aI24
aI24
aI25
aI25
aI25
aI25
aI25
aI25
aI26
aI26
aI26
aI27
aI27
aI27
aI27
aI27
aI27
aI28
aI28
aI28
aI28
aI28
aI29
aI29
aI29
aI29
aI29
aI29
aI29
aI29
aI29
aI29
aI30
aI30
aI30
aI30
aI30
aI30
aI31
aI31
aI31
aI31
aI31
aI32
aI32
aI32
aI32
aI33
aI33
aI33
aI34
aI34
aI34
aI34
aI34
aI34
aI35
aI35
aI33
aI31
aI29
aI27
aI26
aI24
aI25
aI23
aI21
aI19
aI17
aI15
aI13
aI11
aI11
aI11
aI10
aI9
aI7
aI6
aI6
aI5
aI5
aI5
aI5
aI5
aI5
aI5
aI5
aI5
aI5
aI5
aI5
aI5
aI5
aI5
aI6
aI7
aI7
aI7
aI7
aI7
aI7
aI7
aI7
aI6
aI6
aI5
aI5
aI4
aI4
aI4
aI5
aI5
aI6
aI7
aI7
aI7
aI7
aI7
aI7
aI7
aI7
aI8
aI8
aI8
aI8
aI8
aI8
aI7
aI6
aI5
aI5
aI5
aI5
aI6
aI7
aI7
aI7
aI7
aI7
aI7
aI7
aI7
aI7
aI7
aI7
aI7
aI7
aI7
aI7
aI8
aI8
aI8
aI7
aI6
aI6
aI7
aI7
aI7
aI7
aI7
aI7
aI7
aI8
aI7
aI7
aI7
aI7
aI7
aI8
aI8
aI8
aI8
aI8
aI8
aI9
aI9
aI8
aI8
aI7
aI6
aI5
aI4
aI3
aI4
aI5
aI4
aI5
aI5
aI5
aI5
aI6
aI6
aI6
aI6
aI7
aI8
aI7
aI7
aI9
aI9
aI10
aI10
aI10
aI10
aI11
aI12
aI11
aI11
aI11
aI12
aI12
aI13
aI13
aI13
aI13
aI14
aI14
aI14
aI14
aI15
aI15
aI15
aI15
aI15
aI16
aI16
aI17
aI17
aI17
aI17
aI18
aI18
aI18
aI18
aI19
aI19
aI20
aI20
aI20
aI20
aI20
aI21
aI21
aI21
aI21
aI21
aI21
aI21
aI21
aI21
aI22
aI23
aI22
aI23
aI23
aI24
aI25
aI25
aI25
aI25
aI26
aI27
aI26
aI27
aI27
aI27
aI28
aI29
aI29
aI29
aI29
aI30
aI31
aI31
aI31
aI32
aI32
aI32
aI33
aI33
aI33
aI34
aI34
aI34
aI34
aI34
aI35
aI35
aI35
aI35
aI35
aI36
aI34
aI33
aI32
aI30
aI28
aI28
aI27
aI26
aI24
aI22
aI20
aI19
aI18
aI19
aI19
aI19
aI19
aI19
aI19
aI20
aI21
aI21
aI22
aI21
aI22
aI22
aI22
aI22
aI22
aI22
aI22
aI22
aI22
aI22
aI23
aI23
aI23
aI23
aI23
aI25
aI25
aI25
aI25
aI25
aI25
aI25
aI26
aI26
aI26
aI27
aI26
aI26
aI26
aI27
aI27
aI27
aI27
aI27
aI27
aI27
aI27
aI28
aI28
aI28
aI28
aI30
aI30
aI30
aI30
aI31
aI31
aI31
aI31
aI31
aI31
aI32
aI32
aI32
aI32
aI34
aI34
aI34
aI34
aI34
aI35
aI35
aI35
aI33
aI31
aI29
aI28
aI26
aI26
aI24
aI22
aI21
aI20
aI19
aI16
aI15
aI13
aI12
aI10
aI9
aI8
aI7
aI7
aI7
aI7
aI7
aI8
aI8
aI8
aI8
aI8
aI9
aI9
aI9
aI9
aI9
aI9
aI9
aI9
aI9
aI10
aI10
aI10
aI10
aI10
aI10
aI10
aI10
aI9
aI9
aI8
aI8
aI8
aI8
aI8
aI8
aI8
aI8
aI8
aI8
aI8
aI8
aI8
aI8
aI8
aI8
aI8
aI8
aI8
aI8
aI8
aI8
aI8
aI8
aI8
aI8
aI8
aI8
aI8
aI8
aI8
aI8
aI8
aI8
aI8
aI9
aI9
aI9
aI9
aI9
aI9
aI9
aI9
aI9
aI9
aI9
aI9
aI9
aI9
aI9
aI9
aI9
aI9
aI9
aI9
aI9
aI9
aI9
aI9
aI9
aI9
aI10
aI9
aI8
aI7
aI6
aI5
aI4
aI3
aI3
aI3
aI2
aI1
aI1
aI2
aI2
aI2
aI2
aI2
aI3
aI4
aI4
aI4
aI4
aI4
aI5
aI5
aI6
aI6
aI7
aI7
aI7
aI7
aI7
aI8
aI8
aI8
aI8
aI8
aI8
aI8
aI8
aI8
aI8
aI8
aI8
aI8
aI8
aI8
aI8
aI8
aI8
aI8
aI8
aI8
aI9
aI9
aI9
aI10
aI10
aI10
aI10
aI10
aI11
aI11
aI11
aI11
aI12
aI12
aI13
aI13
aI13
aI13
aI13
aI13
aI13
aI13
aI13
aI13
aI13
aI13
aI15
aI15
aI15
aI15
aI15
aI17
aI17
aI17
aI17
aI17
aI17
aI17
aI18
aI18
aI18
aI18
aI19
aI19
aI19
aI19
aI19
aI20
aI20
aI20
aI20
aI20
aI20
aI21
aI21
aI21
aI22
aI22
aI22
aI23
aI24
aI24
aI25
aI25
aI26
aI26
aI26
aI27
aI27
aI28
aI28
aI28
aI28
aI28
aI30
aI30
aI30
aI31
aI31
aI31
aI31
aI31
aI32
aI32
aI32
aI33
aI33
aI34
aI33
aI33
aI33
aI34
aI34
aI34
aI35
aI33
aI32
aI30
aI28
aI27
aI26
aI25
aI23
aI22
aI20
aI20
aI20
aI20
aI20
aI20
aI20
aI20
aI20
aI21
aI21
aI21
aI21
aI21
aI21
aI21
aI21
aI22
aI22
aI22
aI22
aI22
aI22
aI22
aI22
aI22
aI22
aI22
aI22
aI22
aI23
aI23
aI23
aI24
aI24
aI24
aI24
aI24
aI24
aI24
aI24
aI24
aI24
aI24
aI24
aI24
aI25
aI25
aI25
aI25
aI25
aI26
aI26
aI26
aI26
aI26
aI27
aI27
aI27
aI27
aI28
aI28
aI29
aI29
aI29
aI30
aI30
aI30
aI30
aI31
aI31
aI29
aI27
aI25
aI23
aI22
aI21
aI19
aI17
aI17
aI15
aI13
aI11
aI10
aI9
aI8
aI6
aI4
aI3
aI3
aI2
aI2
aI3
aI3
aI3
aI3
aI3
aI3
aI3
aI3
aI3
aI3
aI3
aI3
aI3
aI3
aI3
aI3
aI3
aI3
aI3
aI3
aI3
aI3
aI3
aI3
aI2
aI2
aI2
aI2
aI2
aI2
aI2
aI3
aI3
aI3
aI3
aI3
aI3
aI3
aI3
aI3
aI3
aI3
aI4
aI4
aI4
aI4
aI4
aI4
aI4
aI4
aI4
aI4
aI5
aI5
aI5
aI5
aI5
aI5
aI5
aI5
aI5
aI5
aI5
aI5
aI5
aI5
aI5
aI5
aI6
aI6
aI6
aI6
aI6
aI7
aI7
aI7
aI7
aI7
aI7
aI7
aI7
aI7
aI7
aI7
aI7
aI7
aI7
aI7
aI7
aI7
aI7
aI7
aI7
aI7
aI7
aI7
aI7
aI7
aI7
aI7
aI7
aI8
aI8
aI8
aI8
aI8
aI8
aI8
aI8
aI6
aI5
aI4
aI3
aI2
aI2
aI2
aI1
aI1
aI1
aI1
aI1
aI2
aI2
aI2
aI2
aI3
aI3
aI3
aI3
aI3
aI3
aI4
aI4
aI4
aI4
aI4
aI5
aI5
aI5
aI6
aI6
aI7
aI7
aI7
aI7
aI9
aI9
aI9
aI9
aI9
aI9
aI9
aI10
aI10
aI10
aI11
aI11
aI11
aI11
aI12
aI12
aI13
aI13
aI13
aI15
aI15
aI15
aI15
aI15
aI15
aI16
aI17
aI17
aI17
aI17
aI18
aI18
aI18
aI18
aI18
aI20
aI20
aI20
aI20
aI20
aI21
aI22
aI22
aI22
aI23
aI24
aI24
aI24
aI24
aI24
aI26
aI26
aI26
aI26
aI27
aI27
aI27
aI27
aI27
aI28
aI28
aI28
aI29
aI29
aI29
aI29
aI29
aI29
aI29
aI29
aI29
aI29
aI29
aI30
aI30
aI30
aI30
aI30
aI30
aI30
aI30
aI31
aI31
aI31
aI31
aI31
aI31
aI31
aI31
aI31
aI31
aI32
aI32
aI32
aI32
aI32
aI31
aI29
aI27
aI26
aI24
aI22
aI21
aI21
aI21
aI21
aI21
aI21
aI21
aI21
aI21
aI21
aI22
aI22
aI23
aI23
aI23
aI23
aI23
aI23
aI23
aI24
aI24
aI24
aI24
aI25
aI25
aI25
aI25
aI25
aI25
aI25
aI25
aI25
aI26
aI26
aI26
aI26
aI26
aI26
aI27
aI27
aI27
aI27
aI27
aI27
aI27
aI27
aI27
aI28
aI28
aI28
aI28
aI28
aI28
aI28
aI29
aI29
aI29
aI29
aI29
aI30
aI30
aI30
aI30
aI30
aI30
aI31
aI31
aI31
aI31
aI31
aI31
aI31
aI32
aI32
aI32
aI32
aI32
aI32
aI32
aI32
aI32
aI32
aI32
aI30
aI28
aI26
aI24
aI23
aI22
aI20
aI18
aI16
aI15
aI15
aI13
aI12
aI10
aI8
aI6
aI6
aI4
aI3
aI2
aI2
aI3
aI3
aI3
aI4
aI4
aI4
aI4
aI4
aI4
aI4
aI4
aI4
aI4
aI4
aI4
aI4
aI4
aI4
aI4
aI4
aI4
aI4
aI4
aI4
aI5
aI5
aI5
aI5
aI6
aI6
aI6
aI6
aI6
aI5
aI5
aI4
aI3
aI3
aI3
aI4
aI4
aI4
aI5
aI4
aI3
aI3
aI3
aI3
aI3
aI3
aI3
aI3
aI3
aI3
aI3
aI3
aI3
aI3
aI3
aI3
aI3
aI3
aI3
aI3
aI3
aI3
aI3
aI3
aI3
aI3
aI3
aI3
aI3
aI3
aI3
aI3
aI3
aI3
aI3
aI3
aI4
aI4
aI4
aI4
aI4
aI4
aI4
aI4
aI4
aI4
aI4
aI4
aI4
aI4
aI4
aI4
aI4
aI4
aI4
aI4
aI5
aI5
aI5
aI5
aI5
aI5
aI5
aI5
aI5
aI5
aI5
aI5
aI5
aI5
aI5
aI5
aI5
aI5
aI5
aI5
aI5
aI5
aI5
aI4
aI3
aI3
aI3
aI3
aI2
aI2
aI2
aI3
aI3
aI4
aI4
aI4
aI5
aI5
aI5
aI5
aI6
aI6
aI6
aI6
aI6
aI7
aI7
aI7
aI7
aI8
aI9
aI9
aI9
aI9
aI9
aI10
aI10
aI10
aI10
aI11
aI11
aI11
aI11
aI12
aI12
aI12
aI12
aI12
aI12
aI12
aI14
aI14
aI14
aI14
aI15
aI16
aI16
aI16
aI16
aI16
aI16
aI16
aI16
aI17
aI17
aI17
aI17
aI18
aI18
aI18
aI19
aI19
aI20
aI20
aI20
aI20
aI20
aI21
aI21
aI21
aI21
aI23
aI23
aI23
aI23
aI23
aI23
aI25
aI25
aI25
aI26
aI26
aI26
aI27
aI27
aI27
aI28
aI28
aI29
aI29
aI29
aI30
aI30
aI31
aI31
aI31
aI31
aI32
aI33
aI33
aI34
aI34
aI34
aI36
aI36
aI36
aI36
aI36
aI36
aI37
aI37
aI37
aI37
aI37
aI38
aI38
aI38
aI38
aI38
aI36
aI35
aI33
aI31
aI29
aI27
aI27
aI27
aI26
aI24
aI22
aI22
aI21
aI20
aI18
aI17
aI17
aI17
aI18
aI18
aI18
aI18
aI18
aI18
aI18
aI18
aI18
aI18
aI18
aI18
aI18
aI18
aI18
aI18
aI19
aI19
aI19
aI19
aI19
aI20
aI20
aI20
aI20
aI20
aI21
aI21
aI22
aI22
aI23
aI23
aI24
aI24
aI25
aI25
aI25
aI25
aI25
aI25
aI26
aI26
aI26
aI27
aI27
aI27
aI27
aI27
aI28
aI28
aI28
aI28
aI28
aI28
aI26
aI24
aI22
aI21
aI20
aI18
aI16
aI15
aI13
aI11
aI10
aI8
aI7
aI6
aI6
aI6
aI6
aI7
aI7
aI7
aI7
aI7
aI7
aI7
aI7
aI7
aI7
aI7
aI7
aI7
aI7
aI7
aI7
aI7
aI7
aI7
aI7
aI7
aI7
aI7
aI7
aI7
aI7
aI7
aI7
aI7
aI7
aI7
aI7
aI7
aI7
aI7
aI7
aI7
aI7
aI7
aI7
aI7
aI7
aI7
aI7
aI7
aI7
aI8
aI8
aI8
aI8
aI8
aI8
aI8
aI8
aI8
aI8
aI8
aI8
aI8
aI8
aI8
aI8
aI8
aI8
aI8
aI8
aI8
aI8
aI8
aI8
aI8
aI8
aI8
aI8
aI8
aI8
aI8
aI8
aI8
aI8
aI8
aI8
aI8
aI8
aI8
aI8
aI8
aI8
aI9
aI8
aI8
aI8
aI8
aI8
aI8
aI8
aI8
aI8
aI8
aI8
aI8
aI8
aI8
aI8
aI8
aI8
aI8
aI8
aI8
aI8
aI8
aI8
aI8
aI8
aI8
aI8
aI8
aI8
aI8
aI8
aI8
aI8
aI8
aI8
aI8
aI8
aI8
aI8
aI8
aI8
aI8
aI8
aI7
aI6
aI7
aI6
aI5
aI4
aI3
aI3
aI4
aI3
aI3
aI4
aI4
aI4
aI5
aI5
aI6
aI6
aI6
aI6
aI6
aI6
aI6
aI6
aI6
aI6
aI6
aI6
aI6
aI6
aI7
aI7
aI7
aI7
aI8
aI8
aI8
aI8
aI8
aI8
aI8
aI8
aI8
aI8
aI8
aI8
aI8
aI8
aI9
aI10
aI10
aI10
aI10
aI10
aI11
aI11
aI11
aI11
aI12
aI12
aI13
aI13
aI13
aI14
aI14
aI15
aI15
aI15
aI16
aI17
aI17
aI17
aI18
aI18
aI18
aI18
aI18
aI19
aI19
aI19
aI19
aI19
aI19
aI20
aI20
aI20
aI21
aI21
aI21
aI21
aI22
aI22
aI22
aI24
aI24
aI24
aI24
aI25
aI26
aI26
aI26
aI27
aI28
aI28
aI28
aI28
aI28
aI29
aI29
aI30
aI31
aI31
aI32
aI32
aI32
aI32
aI32
aI33
aI34
aI34
aI34
aI36
aI36
aI36
aI36
aI36
aI34
aI34
aI32
aI31
aI29
aI28
aI27
aI25
aI23
aI22
aI21
aI21
aI21
aI21
aI21
aI21
aI21
aI21
aI21
aI21
aI21
aI21
aI21
aI21
aI21
aI21
aI21
aI21
aI21
aI21
aI22
aI22
aI22
aI22
aI22
aI22
aI22
aI22
aI22
aI22
aI22
aI22
aI22
aI22
aI22
aI22
aI22
aI22
aI22
aI24
aI24
aI24
aI24
aI24
aI24
aI24
aI24
aI24
aI24
aI24
aI25
aI25
aI25
aI27
aI27
aI27
aI27
aI27
aI28
aI28
aI28
aI28
aI28
aI29
aI29
aI29
aI29
aI29
aI31
aI31
aI31
aI31
aI32
aI32
aI33
aI33
aI31
aI31
aI29
aI27
aI25
aI24
aI23
aI22
aI21
aI19
aI17
aI17
aI15
aI13
aI11
aI10
aI9
aI7
aI7
aI7
aI7
aI7
aI7
aI8
aI8
aI8
aI8
aI8
aI8
aI8
aI8
aI8
aI8
aI9
aI9
aI9
aI9
aI9
aI10
aI10
aI10
aI10
aI11
aI11
aI11
aI10
aI10
aI10
aI11
aI11
aI11
aI11
aI11
aI11
aI11
aI11
aI11
aI11
aI11
aI11
aI11
aI11
aI11
aI11
aI11
aI11
aI11
aI11
aI11
aI11
aI11
aI11
aI11
aI11
aI11
aI11
aI11
aI11
aI11
aI11
aI11
aI11
aI11
aI11
aI11
aI11
aI11
aI11
aI12
aI12
aI12
aI12
aI12
aI12
aI12
aI12
aI12
aI12
aI12
aI12
aI13
aI13
aI13
aI13
aI13
aI13
aI13
aI13
aI13
aI13
aI13
aI13
aI13
aI12
aI11
aI10
aI11
aI11
aI10
aI9
aI9
aI8
aI9
aI8
aI7
aI7
aI7
aI6
aI6
aI6
aI6
aI6
aI7
aI7
aI7
aI8
aI8
aI8
aI8
aI8
aI9
aI10
aI10
aI10
aI10
aI10
aI11
aI11
aI11
aI12
aI12
aI12
aI12
aI12
aI12
aI12
aI12
aI12
aI12
aI12
aI13
aI13
aI13
aI13
aI13
aI14
aI14
aI14
aI14
aI14
aI15
aI15
aI15
aI15
aI15
aI15
aI15
aI16
aI16
aI16
aI16
aI16
aI16
aI17
aI17
aI17
aI18
aI18
aI18
aI18
aI18
aI18
aI18
aI19
aI19
aI19
aI19
aI19
aI20
aI20
aI20
aI20
aI20
aI20
aI20
aI20
aI20
aI20
aI20
aI20
aI21
aI21
aI21
aI21
aI21
aI21
aI21
aI21
aI21
aI21
aI21
aI21
aI21
aI22
aI22
aI22
aI22
aI22
aI22
aI23
aI24
aI24
aI23
aI21
aI19
aI18
aI16
aI15
aI14
aI13
aI14
aI14
aI14
aI15
aI15
aI15
aI15
aI15
aI15
aI15
aI16
aI16
aI16
aI16
aI16
aI16
aI17
aI17
aI17
aI17
aI17
aI17
aI17
aI17
aI17
aI17
aI17
aI18
aI18
aI18
aI18
aI18
aI18
aI18
aI18
aI18
aI18
aI18
aI19
aI19
aI19
aI19
aI19
aI19
aI19
aI19
aI19
aI19
aI20
aI20
aI20
aI20
aI20
aI21
aI21
aI21
aI21
aI21
aI22
aI23
aI23
aI23
aI23
aI23
aI24
aI24
aI24
aI24
aI25
aI25
aI25
aI26
aI26
aI26
aI26
aI26
aI26
aI26
aI26
aI26
aI26
aI26
aI26
aI27
aI27
aI27
aI27
aI27
aI27
aI27
aI27
aI27
aI27
aI27
aI27
aI28
aI28
aI28
aI28
aI28
aI28
aI28
aI28
aI28
aI28
aI28
aI28
aI28
aI28
aI26
aI25
aI23
aI21
aI19
aI17
aI17
aI15
aI13
aI11
aI11
aI9
aI7
aI6
aI6
aI5
aI4
aI4
aI4
aI5
aI5
aI5
aI5
aI6
aI6
aI6
aI6
aI6
aI6
aI6
aI6
aI6
aI6
aI6
aI6
aI6
aI5
aI5
aI5
aI5
aI5
aI5
aI5
aI5
aI5
aI5
aI5
aI5
aI5
aI5
aI5
aI5
aI5
aI5
aI5
aI5
aI5
aI5
aI5
aI5
aI5
aI5
aI5
aI5
aI5
aI5
aI5
aI5
aI5
aI5
aI5
aI5
aI5
aI5
aI5
aI5
aI5
aI5
aI5
aI5
aI5
aI5
aI5
aI5
aI5
aI5
aI5
aI5
aI5
aI5
aI5
aI5
aI5
aI5
aI5
aI5
aI5
aI5
aI5
aI5
aI5
aI5
aI5
aI5
aI5
aI5
aI5
aI5
aI5
aI5
aI5
aI5
aI5
aI5
aI5
aI5
aI5
aI5
aI5
aI5
aI5
aI5
aI5
aI5
aI5
aI5
aI5
aI5
aI5
aI5
aI5
aI5
aI5
aI5
aI5
aI5
aI5
aI5
aI5
aI5
aI5
aI5
aI5
aI5
aI5
aI5
aI5
aI5
aI5
aI5
aI5
aI5
aI5
aI5
aI5
aI5
aI5
aI5
aI5
aI5
aI5
aI5
aI5
aI5
aI5
aI5
aI5
aI5
aI5
aI5
aI5
aI5
aI5
aI5
aI5
aI5
aI5
aI5
aI5
aI5
aI5
aI5
aI5
aI5
aI5
aI5
aI5
aI5
aI5
aI5
aI5
aI5
aI5
aI5
aI5
aI5
aI5
aI5
aI5
aI5
aI5
aI4
aI3
aI2
aI1
aI0
aI0
aI0
aI1
aI1
aI2
aI3
aI3
aI4
aI4
aI4
aI4
aI4
aI4
aI4
aI4
aI4
aI4
aI4
aI4
aI4
aI4
aI4
aI4
aI4
aI4
aI4
aI4
aI4
aI4
aI4
aI4
aI4
aI4
aI4
aI4
aI4
aI4
aI4
aI4
aI4
aI4
aI4
aI4
aI4
aI4
aI4
aI4
aI4
aI4
aI4
aI4
aI4
aI4
aI4
aI4
aI4
aI4
aI4
aI4
aI4
aI4
aI4
aI4
aI4
aI4
aI4
aI4
aI4
aI4
aI4
aI4
aI4
aI4
aI4
aI4
aI4
aI4
aI4
aI4
aI4
aI4
aI4
aI4
aI4
aI4
aI4
aI4
aI4
aI4
aI4
aI4
aI4
aI4
aI4
aI4
aI4
aI4
aI4
aI4
aI4
aI4
aI4
aI4
aI4
aI4
aI4
aI4
aI4
aI4
aI4
aI4
aI4
aI4
aI4
aI4
aI4
aI4
aI4
aI4
aI4
aI4
aI4
aI4
aI4
aI4
aI4
aI4
aI4
aI4
aI4
aI4
aI4
aI4
aI4
aI3
aI2
aI1
aI0
aI0
aI0
aI0
aI0
aI0
aI0
aI0
aI0
aI0
aI0
aI0
aI0
aI0
aI0
aI0
aI0
aI0
aI0
aI0
aI0
aI0
aI0
aI0
aI0
aI0
aI0
aI0
aI0
aI0
aI0
aag2
(g3
tRp18
I0
(lp19
I1482
aI65
aI152
aI126
aI124
aI172
aI148
aI140
aI125
aI132
aI122
aI122
aI121
aI126
aI147
aI139
aI116
aI109
aI130
aI144
aI149
aI113
aI340
asI1
(lp20
I103
aI91
aI72
aI82
aI86
aI99
aI88
aI84
aI91
aI100
aI82
aI105
aI83
aI88
aI89
aI87
aI87
aI80
aI89
aI72
aI86
aI117
asI2
(lp21
I119
aI107
aI125
aI124
aI128
aI122
aI136
aI122
aI156
aI132
aI137
aI136
aI122
aI135
aI128
aI137
aI118
aI148
aI132
aI126
aI126
aI119
asaF0.0072548810412888087
a.